	.syntax unified
	.arch armv7-a
	.eabi_attribute 27, 3
	.eabi_attribute 28, 1
	.fpu vfpv3-d16
	.eabi_attribute 20, 1
	.eabi_attribute 21, 1
	.eabi_attribute 23, 3
	.eabi_attribute 24, 1
	.eabi_attribute 25, 1
	.eabi_attribute 26, 2
	.eabi_attribute 30, 2
	.eabi_attribute 34, 1
	.eabi_attribute 18, 4
	.thumb
	.file	"Client.cpp"
	.text
.Ltext0:
	.cfi_sections	.debug_frame
	.section	.text._ZNKSt5ctypeIcE8do_widenEc,"axG",%progbits,_ZNKSt5ctypeIcE8do_widenEc,comdat
	.align	2
	.weak	_ZNKSt5ctypeIcE8do_widenEc
	.thumb
	.thumb_func
	.type	_ZNKSt5ctypeIcE8do_widenEc, %function
_ZNKSt5ctypeIcE8do_widenEc:
	.fnstart
.LFB2301:
	.file 1 "/usr/include/c++/4.9/bits/locale_facets.h"
	.loc 1 1075 0
	.cfi_startproc
	@ args = 0, pretend = 0, frame = 0
	@ frame_needed = 0, uses_anonymous_args = 0
	@ link register save eliminated.
.LVL0:
	.loc 1 1076 0
	mov	r0, r1
.LVL1:
	bx	lr
	.cfi_endproc
.LFE2301:
	.cantunwind
	.fnend
	.size	_ZNKSt5ctypeIcE8do_widenEc, .-_ZNKSt5ctypeIcE8do_widenEc
	.section	.text._ZNSt23_Sp_counted_ptr_inplaceINSt6thread5_ImplISt12_Bind_simpleIFSt7_Mem_fnIM6ClientFvvEEPS4_EEEESaISB_ELN9__gnu_cxx12_Lock_policyE2EED2Ev,"axG",%progbits,_ZNSt23_Sp_counted_ptr_inplaceINSt6thread5_ImplISt12_Bind_simpleIFSt7_Mem_fnIM6ClientFvvEEPS4_EEEESaISB_ELN9__gnu_cxx12_Lock_policyE2EED5Ev,comdat
	.align	2
	.weak	_ZNSt23_Sp_counted_ptr_inplaceINSt6thread5_ImplISt12_Bind_simpleIFSt7_Mem_fnIM6ClientFvvEEPS4_EEEESaISB_ELN9__gnu_cxx12_Lock_policyE2EED2Ev
	.thumb
	.thumb_func
	.type	_ZNSt23_Sp_counted_ptr_inplaceINSt6thread5_ImplISt12_Bind_simpleIFSt7_Mem_fnIM6ClientFvvEEPS4_EEEESaISB_ELN9__gnu_cxx12_Lock_policyE2EED2Ev, %function
_ZNSt23_Sp_counted_ptr_inplaceINSt6thread5_ImplISt12_Bind_simpleIFSt7_Mem_fnIM6ClientFvvEEPS4_EEEESaISB_ELN9__gnu_cxx12_Lock_policyE2EED2Ev:
	.fnstart
.LFB8147:
	.file 2 "/usr/include/c++/4.9/bits/shared_ptr_base.h"
	.loc 2 519 0
	.cfi_startproc
	@ args = 0, pretend = 0, frame = 0
	@ frame_needed = 0, uses_anonymous_args = 0
	@ link register save eliminated.
.LVL2:
	.loc 2 519 0
	bx	lr
	.cfi_endproc
.LFE8147:
	.cantunwind
	.fnend
	.size	_ZNSt23_Sp_counted_ptr_inplaceINSt6thread5_ImplISt12_Bind_simpleIFSt7_Mem_fnIM6ClientFvvEEPS4_EEEESaISB_ELN9__gnu_cxx12_Lock_policyE2EED2Ev, .-_ZNSt23_Sp_counted_ptr_inplaceINSt6thread5_ImplISt12_Bind_simpleIFSt7_Mem_fnIM6ClientFvvEEPS4_EEEESaISB_ELN9__gnu_cxx12_Lock_policyE2EED2Ev
	.weak	_ZNSt23_Sp_counted_ptr_inplaceINSt6thread5_ImplISt12_Bind_simpleIFSt7_Mem_fnIM6ClientFvvEEPS4_EEEESaISB_ELN9__gnu_cxx12_Lock_policyE2EED1Ev
	.thumb_set _ZNSt23_Sp_counted_ptr_inplaceINSt6thread5_ImplISt12_Bind_simpleIFSt7_Mem_fnIM6ClientFvvEEPS4_EEEESaISB_ELN9__gnu_cxx12_Lock_policyE2EED1Ev,_ZNSt23_Sp_counted_ptr_inplaceINSt6thread5_ImplISt12_Bind_simpleIFSt7_Mem_fnIM6ClientFvvEEPS4_EEEESaISB_ELN9__gnu_cxx12_Lock_policyE2EED2Ev
	.section	.text._ZNSt23_Sp_counted_ptr_inplaceINSt6thread5_ImplISt12_Bind_simpleIFSt7_Mem_fnIM6ClientFvvEEPS4_EEEESaISB_ELN9__gnu_cxx12_Lock_policyE2EE10_M_disposeEv,"axG",%progbits,_ZNSt23_Sp_counted_ptr_inplaceINSt6thread5_ImplISt12_Bind_simpleIFSt7_Mem_fnIM6ClientFvvEEPS4_EEEESaISB_ELN9__gnu_cxx12_Lock_policyE2EE10_M_disposeEv,comdat
	.align	2
	.weak	_ZNSt23_Sp_counted_ptr_inplaceINSt6thread5_ImplISt12_Bind_simpleIFSt7_Mem_fnIM6ClientFvvEEPS4_EEEESaISB_ELN9__gnu_cxx12_Lock_policyE2EE10_M_disposeEv
	.thumb
	.thumb_func
	.type	_ZNSt23_Sp_counted_ptr_inplaceINSt6thread5_ImplISt12_Bind_simpleIFSt7_Mem_fnIM6ClientFvvEEPS4_EEEESaISB_ELN9__gnu_cxx12_Lock_policyE2EE10_M_disposeEv, %function
_ZNSt23_Sp_counted_ptr_inplaceINSt6thread5_ImplISt12_Bind_simpleIFSt7_Mem_fnIM6ClientFvvEEPS4_EEEESaISB_ELN9__gnu_cxx12_Lock_policyE2EE10_M_disposeEv:
	.fnstart
.LFB8150:
	.loc 2 522 0
	.cfi_startproc
	@ args = 0, pretend = 0, frame = 0
	@ frame_needed = 0, uses_anonymous_args = 0
	@ link register save eliminated.
.LVL3:
	.loc 2 522 0
	mov	r3, r0
.LVL4:
.LBB1063:
.LBB1064:
.LBB1065:
.LBB1066:
	.file 3 "/usr/include/c++/4.9/ext/new_allocator.h"
	.loc 3 124 0
	adds	r0, r0, #12
.LVL5:
	ldr	r3, [r3, #12]
.LVL6:
	ldr	r3, [r3]
	bx	r3
.LVL7:
.LBE1066:
.LBE1065:
.LBE1064:
.LBE1063:
	.cfi_endproc
.LFE8150:
	.cantunwind
	.fnend
	.size	_ZNSt23_Sp_counted_ptr_inplaceINSt6thread5_ImplISt12_Bind_simpleIFSt7_Mem_fnIM6ClientFvvEEPS4_EEEESaISB_ELN9__gnu_cxx12_Lock_policyE2EE10_M_disposeEv, .-_ZNSt23_Sp_counted_ptr_inplaceINSt6thread5_ImplISt12_Bind_simpleIFSt7_Mem_fnIM6ClientFvvEEPS4_EEEESaISB_ELN9__gnu_cxx12_Lock_policyE2EE10_M_disposeEv
	.section	.text._ZNSt23_Sp_counted_ptr_inplaceINSt6thread5_ImplISt12_Bind_simpleIFSt7_Mem_fnIM6ClientFvvEEPS4_EEEESaISB_ELN9__gnu_cxx12_Lock_policyE2EED0Ev,"axG",%progbits,_ZNSt23_Sp_counted_ptr_inplaceINSt6thread5_ImplISt12_Bind_simpleIFSt7_Mem_fnIM6ClientFvvEEPS4_EEEESaISB_ELN9__gnu_cxx12_Lock_policyE2EED5Ev,comdat
	.align	2
	.weak	_ZNSt23_Sp_counted_ptr_inplaceINSt6thread5_ImplISt12_Bind_simpleIFSt7_Mem_fnIM6ClientFvvEEPS4_EEEESaISB_ELN9__gnu_cxx12_Lock_policyE2EED0Ev
	.thumb
	.thumb_func
	.type	_ZNSt23_Sp_counted_ptr_inplaceINSt6thread5_ImplISt12_Bind_simpleIFSt7_Mem_fnIM6ClientFvvEEPS4_EEEESaISB_ELN9__gnu_cxx12_Lock_policyE2EED0Ev, %function
_ZNSt23_Sp_counted_ptr_inplaceINSt6thread5_ImplISt12_Bind_simpleIFSt7_Mem_fnIM6ClientFvvEEPS4_EEEESaISB_ELN9__gnu_cxx12_Lock_policyE2EED0Ev:
	.fnstart
.LFB8149:
	.loc 2 519 0
	.cfi_startproc
	@ args = 0, pretend = 0, frame = 0
	@ frame_needed = 0, uses_anonymous_args = 0
.LVL8:
	push	{r4, lr}
	.cfi_def_cfa_offset 8
	.cfi_offset 4, -8
	.cfi_offset 14, -4
	.loc 2 519 0
	mov	r4, r0
.LVL9:
	bl	_ZdlPv
.LVL10:
	mov	r0, r4
	pop	{r4, pc}
	.cfi_endproc
.LFE8149:
	.cantunwind
	.fnend
	.size	_ZNSt23_Sp_counted_ptr_inplaceINSt6thread5_ImplISt12_Bind_simpleIFSt7_Mem_fnIM6ClientFvvEEPS4_EEEESaISB_ELN9__gnu_cxx12_Lock_policyE2EED0Ev, .-_ZNSt23_Sp_counted_ptr_inplaceINSt6thread5_ImplISt12_Bind_simpleIFSt7_Mem_fnIM6ClientFvvEEPS4_EEEESaISB_ELN9__gnu_cxx12_Lock_policyE2EED0Ev
	.section	.text._ZNSt23_Sp_counted_ptr_inplaceINSt6thread5_ImplISt12_Bind_simpleIFSt7_Mem_fnIM6ClientFvvEEPS4_EEEESaISB_ELN9__gnu_cxx12_Lock_policyE2EE10_M_destroyEv,"axG",%progbits,_ZNSt23_Sp_counted_ptr_inplaceINSt6thread5_ImplISt12_Bind_simpleIFSt7_Mem_fnIM6ClientFvvEEPS4_EEEESaISB_ELN9__gnu_cxx12_Lock_policyE2EE10_M_destroyEv,comdat
	.align	2
	.weak	_ZNSt23_Sp_counted_ptr_inplaceINSt6thread5_ImplISt12_Bind_simpleIFSt7_Mem_fnIM6ClientFvvEEPS4_EEEESaISB_ELN9__gnu_cxx12_Lock_policyE2EE10_M_destroyEv
	.thumb
	.thumb_func
	.type	_ZNSt23_Sp_counted_ptr_inplaceINSt6thread5_ImplISt12_Bind_simpleIFSt7_Mem_fnIM6ClientFvvEEPS4_EEEESaISB_ELN9__gnu_cxx12_Lock_policyE2EE10_M_destroyEv, %function
_ZNSt23_Sp_counted_ptr_inplaceINSt6thread5_ImplISt12_Bind_simpleIFSt7_Mem_fnIM6ClientFvvEEPS4_EEEESaISB_ELN9__gnu_cxx12_Lock_policyE2EE10_M_destroyEv:
	.fnstart
.LFB8151:
	.loc 2 529 0
	.cfi_startproc
	@ args = 0, pretend = 0, frame = 0
	@ frame_needed = 0, uses_anonymous_args = 0
	@ link register save eliminated.
.LVL11:
.LBB1079:
.LBB1080:
.LBB1081:
.LBB1082:
	.loc 3 110 0
	b	_ZdlPv
.LVL12:
.LBE1082:
.LBE1081:
.LBE1080:
.LBE1079:
	.cfi_endproc
.LFE8151:
	.cantunwind
	.fnend
	.size	_ZNSt23_Sp_counted_ptr_inplaceINSt6thread5_ImplISt12_Bind_simpleIFSt7_Mem_fnIM6ClientFvvEEPS4_EEEESaISB_ELN9__gnu_cxx12_Lock_policyE2EE10_M_destroyEv, .-_ZNSt23_Sp_counted_ptr_inplaceINSt6thread5_ImplISt12_Bind_simpleIFSt7_Mem_fnIM6ClientFvvEEPS4_EEEESaISB_ELN9__gnu_cxx12_Lock_policyE2EE10_M_destroyEv
	.section	.text._ZNSt23_Sp_counted_ptr_inplaceINSt6thread5_ImplISt12_Bind_simpleIFSt7_Mem_fnIM6ClientFvvEEPS4_EEEESaISB_ELN9__gnu_cxx12_Lock_policyE2EE14_M_get_deleterERKSt9type_info,"axG",%progbits,_ZNSt23_Sp_counted_ptr_inplaceINSt6thread5_ImplISt12_Bind_simpleIFSt7_Mem_fnIM6ClientFvvEEPS4_EEEESaISB_ELN9__gnu_cxx12_Lock_policyE2EE14_M_get_deleterERKSt9type_info,comdat
	.align	2
	.weak	_ZNSt23_Sp_counted_ptr_inplaceINSt6thread5_ImplISt12_Bind_simpleIFSt7_Mem_fnIM6ClientFvvEEPS4_EEEESaISB_ELN9__gnu_cxx12_Lock_policyE2EE14_M_get_deleterERKSt9type_info
	.thumb
	.thumb_func
	.type	_ZNSt23_Sp_counted_ptr_inplaceINSt6thread5_ImplISt12_Bind_simpleIFSt7_Mem_fnIM6ClientFvvEEPS4_EEEESaISB_ELN9__gnu_cxx12_Lock_policyE2EE14_M_get_deleterERKSt9type_info, %function
_ZNSt23_Sp_counted_ptr_inplaceINSt6thread5_ImplISt12_Bind_simpleIFSt7_Mem_fnIM6ClientFvvEEPS4_EEEESaISB_ELN9__gnu_cxx12_Lock_policyE2EE14_M_get_deleterERKSt9type_info:
	.fnstart
.LFB8152:
	.loc 2 540 0
	.cfi_startproc
	@ args = 0, pretend = 0, frame = 0
	@ frame_needed = 0, uses_anonymous_args = 0
.LVL13:
	push	{r4, lr}
	.cfi_def_cfa_offset 8
	.cfi_offset 4, -8
	.cfi_offset 14, -4
	.loc 2 540 0
	mov	r4, r0
	.loc 2 543 0
	mov	r0, r1
.LVL14:
	movw	r1, #:lower16:_ZTISt19_Sp_make_shared_tag
.LVL15:
	movt	r1, #:upper16:_ZTISt19_Sp_make_shared_tag
	bl	_ZNKSt9type_infoeqERKS_
.LVL16:
	cbz	r0, .L8
.LVL17:
.LBB1087:
.LBB1088:
.LBB1089:
.LBB1090:
	.file 4 "/usr/include/c++/4.9/ext/aligned_buffer.h"
	.loc 4 53 0
	add	r0, r4, #12
.LVL18:
.L8:
.LBE1090:
.LBE1089:
.LBE1088:
.LBE1087:
	.loc 2 547 0
	pop	{r4, pc}
	.cfi_endproc
.LFE8152:
	.cantunwind
	.fnend
	.size	_ZNSt23_Sp_counted_ptr_inplaceINSt6thread5_ImplISt12_Bind_simpleIFSt7_Mem_fnIM6ClientFvvEEPS4_EEEESaISB_ELN9__gnu_cxx12_Lock_policyE2EE14_M_get_deleterERKSt9type_info, .-_ZNSt23_Sp_counted_ptr_inplaceINSt6thread5_ImplISt12_Bind_simpleIFSt7_Mem_fnIM6ClientFvvEEPS4_EEEESaISB_ELN9__gnu_cxx12_Lock_policyE2EE14_M_get_deleterERKSt9type_info
	.section	.text._ZNSt16_Sp_counted_baseILN9__gnu_cxx12_Lock_policyE2EE10_M_destroyEv,"axG",%progbits,_ZNSt16_Sp_counted_baseILN9__gnu_cxx12_Lock_policyE2EE10_M_destroyEv,comdat
	.align	2
	.weak	_ZNSt16_Sp_counted_baseILN9__gnu_cxx12_Lock_policyE2EE10_M_destroyEv
	.thumb
	.thumb_func
	.type	_ZNSt16_Sp_counted_baseILN9__gnu_cxx12_Lock_policyE2EE10_M_destroyEv, %function
_ZNSt16_Sp_counted_baseILN9__gnu_cxx12_Lock_policyE2EE10_M_destroyEv:
	.fnstart
.LFB7604:
	.loc 2 125 0
	.cfi_startproc
	@ args = 0, pretend = 0, frame = 0
	@ frame_needed = 0, uses_anonymous_args = 0
	@ link register save eliminated.
.LVL19:
	.loc 2 126 0
	cbz	r0, .L12
	.loc 2 126 0 is_stmt 0 discriminator 1
	ldr	r2, [r0]
	movw	r3, #:lower16:_ZNSt23_Sp_counted_ptr_inplaceINSt6thread5_ImplISt12_Bind_simpleIFSt7_Mem_fnIM6ClientFvvEEPS4_EEEESaISB_ELN9__gnu_cxx12_Lock_policyE2EED0Ev
	movt	r3, #:upper16:_ZNSt23_Sp_counted_ptr_inplaceINSt6thread5_ImplISt12_Bind_simpleIFSt7_Mem_fnIM6ClientFvvEEPS4_EEEESaISB_ELN9__gnu_cxx12_Lock_policyE2EED0Ev
	ldr	r2, [r2, #4]
	cmp	r2, r3
	bne	.L14
.LVL20:
.LBB1105:
.LBB1106:
	.loc 2 519 0 is_stmt 1
	b	_ZdlPv
.LVL21:
.L12:
	bx	lr
.L14:
.LBE1106:
.LBE1105:
	.loc 2 126 0 discriminator 1
	bx	r2
.LVL22:
	.cfi_endproc
.LFE7604:
	.cantunwind
	.fnend
	.size	_ZNSt16_Sp_counted_baseILN9__gnu_cxx12_Lock_policyE2EE10_M_destroyEv, .-_ZNSt16_Sp_counted_baseILN9__gnu_cxx12_Lock_policyE2EE10_M_destroyEv
	.section	.text._ZNSt6thread5_ImplISt12_Bind_simpleIFSt7_Mem_fnIM6ClientFvvEEPS3_EEE6_M_runEv,"axG",%progbits,_ZNSt6thread5_ImplISt12_Bind_simpleIFSt7_Mem_fnIM6ClientFvvEEPS3_EEE6_M_runEv,comdat
	.align	2
	.weak	_ZNSt6thread5_ImplISt12_Bind_simpleIFSt7_Mem_fnIM6ClientFvvEEPS3_EEE6_M_runEv
	.thumb
	.thumb_func
	.type	_ZNSt6thread5_ImplISt12_Bind_simpleIFSt7_Mem_fnIM6ClientFvvEEPS3_EEE6_M_runEv, %function
_ZNSt6thread5_ImplISt12_Bind_simpleIFSt7_Mem_fnIM6ClientFvvEEPS3_EEE6_M_runEv:
	.fnstart
.LFB8153:
	.file 5 "/usr/include/c++/4.9/thread"
	.loc 5 115 0
	.cfi_startproc
	@ args = 0, pretend = 0, frame = 0
	@ frame_needed = 0, uses_anonymous_args = 0
	@ link register save eliminated.
.LVL23:
.LBB1118:
.LBB1119:
.LBB1120:
.LBB1121:
.LBB1122:
.LBB1123:
	.file 6 "/usr/include/c++/4.9/functional"
	.loc 6 569 0
	ldr	r3, [r0, #20]
.LBE1123:
.LBE1122:
	.loc 6 1699 0
	ldr	r2, [r0, #12]
.LVL24:
.LBB1125:
.LBB1124:
	.loc 6 569 0
	lsls	r1, r3, #31
	itttt	mi
	asrmi	r3, r3, #1
	ldrmi	r1, [r0, #16]
	addmi	r0, r2, r3
.LVL25:
	ldrmi	r3, [r2, r3]
	itte	pl
	ldrpl	r1, [r0, #16]
	addpl	r0, r2, r3, asr #1
	ldrmi	r1, [r3, r1]
	bx	r1	@ indirect register sibling call
.LVL26:
.LBE1124:
.LBE1125:
.LBE1121:
.LBE1120:
.LBE1119:
.LBE1118:
	.cfi_endproc
.LFE8153:
	.cantunwind
	.fnend
	.size	_ZNSt6thread5_ImplISt12_Bind_simpleIFSt7_Mem_fnIM6ClientFvvEEPS3_EEE6_M_runEv, .-_ZNSt6thread5_ImplISt12_Bind_simpleIFSt7_Mem_fnIM6ClientFvvEEPS3_EEE6_M_runEv
	.section	.text._ZNSt6thread5_ImplISt12_Bind_simpleIFSt7_Mem_fnIM6ClientFvvEEPS3_EEED2Ev,"axG",%progbits,_ZNSt6thread5_ImplISt12_Bind_simpleIFSt7_Mem_fnIM6ClientFvvEEPS3_EEED5Ev,comdat
	.align	2
	.weak	_ZNSt6thread5_ImplISt12_Bind_simpleIFSt7_Mem_fnIM6ClientFvvEEPS3_EEED2Ev
	.thumb
	.thumb_func
	.type	_ZNSt6thread5_ImplISt12_Bind_simpleIFSt7_Mem_fnIM6ClientFvvEEPS3_EEED2Ev, %function
_ZNSt6thread5_ImplISt12_Bind_simpleIFSt7_Mem_fnIM6ClientFvvEEPS3_EEED2Ev:
	.fnstart
.LFB8126:
	.loc 5 107 0
	.cfi_startproc
	@ args = 0, pretend = 0, frame = 0
	@ frame_needed = 0, uses_anonymous_args = 0
.LVL27:
	push	{r4, r5, r6, lr}
	.cfi_def_cfa_offset 16
	.cfi_offset 4, -16
	.cfi_offset 5, -12
	.cfi_offset 6, -8
	.cfi_offset 14, -4
	.loc 5 107 0
	mov	r4, r0
.LVL28:
.LBB1185:
.LBB1186:
	.loc 5 97 0
	ldr	r3, .L32
.LBB1187:
.LBB1188:
.LBB1189:
.LBB1190:
	.loc 2 665 0
	ldr	r5, [r0, #8]
.LBE1190:
.LBE1189:
.LBE1188:
.LBE1187:
	.loc 5 97 0
	str	r3, [r0]
.LVL29:
.LBB1235:
.LBB1233:
.LBB1231:
.LBB1229:
	.loc 2 665 0
	cbz	r5, .L20
.LVL30:
.LBB1191:
.LBB1192:
.LBB1193:
.LBB1194:
	.file 7 "/usr/include/c++/4.9/ext/atomicity.h"
	.loc 7 81 0
	movw	r6, #:lower16:_ZL28__gthrw___pthread_key_createPjPFvPvE
	movt	r6, #:upper16:_ZL28__gthrw___pthread_key_createPjPFvPvE
	cbz	r6, .L21
.LVL31:
.LBB1195:
.LBB1196:
.LBB1197:
	.loc 7 49 0
	adds	r2, r5, #4
.LVL32:
	dmb	sy
.LVL33:
.L29:
	ldrex	r3, [r2]
	subs	r1, r3, #1
	strex	r0, r1, [r2]
	cmp	r0, #0
	bne	.L29
.LBE1197:
.LBE1196:
.LBE1195:
.LBE1194:
.LBE1193:
	.loc 2 146 0
	cmp	r3, #1
.LBB1208:
.LBB1205:
.LBB1200:
.LBB1199:
.LBB1198:
	.loc 7 49 0
	dmb	sy
.LBE1198:
.LBE1199:
.LBE1200:
.LBE1205:
.LBE1208:
	.loc 2 146 0
	beq	.L31
.LVL34:
.L20:
.LBE1192:
.LBE1191:
.LBE1229:
.LBE1231:
.LBE1233:
.LBE1235:
.LBE1186:
.LBE1185:
	.loc 5 107 0
	mov	r0, r4
	pop	{r4, r5, r6, pc}
.LVL35:
.L21:
.LBB1238:
.LBB1237:
.LBB1236:
.LBB1234:
.LBB1232:
.LBB1230:
.LBB1228:
.LBB1227:
.LBB1209:
.LBB1206:
.LBB1201:
.LBB1202:
	.loc 7 67 0
	ldr	r3, [r5, #4]
.LVL36:
.LBE1202:
.LBE1201:
.LBE1206:
.LBE1209:
	.loc 2 146 0
	cmp	r3, #1
.LBB1210:
.LBB1207:
.LBB1204:
.LBB1203:
	.loc 7 68 0
	add	r2, r3, #-1
	str	r2, [r5, #4]
.LBE1203:
.LBE1204:
.LBE1207:
.LBE1210:
	.loc 2 146 0
	bne	.L20
.LVL37:
.L31:
	.loc 2 149 0
	ldr	r2, [r5]
	movw	r3, #:lower16:_ZNSt23_Sp_counted_ptr_inplaceINSt6thread5_ImplISt12_Bind_simpleIFSt7_Mem_fnIM6ClientFvvEEPS4_EEEESaISB_ELN9__gnu_cxx12_Lock_policyE2EE10_M_disposeEv
	movt	r3, #:upper16:_ZNSt23_Sp_counted_ptr_inplaceINSt6thread5_ImplISt12_Bind_simpleIFSt7_Mem_fnIM6ClientFvvEEPS4_EEEESaISB_ELN9__gnu_cxx12_Lock_policyE2EE10_M_disposeEv
	ldr	r2, [r2, #8]
	cmp	r2, r3
	bne	.L24
.LVL38:
.LBB1211:
.LBB1212:
.LBB1213:
.LBB1214:
.LBB1215:
	.loc 3 124 0
	ldr	r3, [r5, #12]
	add	r0, r5, #12
.LVL39:
	ldr	r3, [r3]
	blx	r3
.LVL40:
.L25:
.LBE1215:
.LBE1214:
.LBE1213:
.LBE1212:
.LBE1211:
.LBB1216:
.LBB1217:
	.loc 7 81 0
	cbz	r6, .L26
.LVL41:
.LBB1218:
.LBB1219:
.LBB1220:
	.loc 7 49 0
	add	r2, r5, #8
.LVL42:
	dmb	sy
.L28:
	ldrex	r3, [r2]
	subs	r1, r3, #1
	strex	r0, r1, [r2]
	cmp	r0, #0
	bne	.L28
	dmb	sy
.LVL43:
.L27:
.LBE1220:
.LBE1219:
.LBE1218:
.LBE1217:
.LBE1216:
	.loc 2 162 0
	cmp	r3, #1
	bne	.L20
.LVL44:
.LBB1224:
.LBB1225:
	.loc 2 166 0
	ldr	r3, [r5]
	mov	r0, r5
	ldr	r3, [r3, #12]
	blx	r3
.LVL45:
	b	.L20
.LVL46:
.L26:
.LBE1225:
.LBE1224:
.LBB1226:
.LBB1223:
.LBB1221:
.LBB1222:
	.loc 7 67 0
	ldr	r3, [r5, #8]
.LVL47:
	.loc 7 68 0
	subs	r2, r3, #1
	str	r2, [r5, #8]
	b	.L27
.LVL48:
.L24:
.LBE1222:
.LBE1221:
.LBE1223:
.LBE1226:
	.loc 2 149 0
	mov	r0, r5
	blx	r2
.LVL49:
	b	.L25
.L33:
	.align	2
.L32:
	.word	_ZTVNSt6thread10_Impl_baseE+8
.LBE1227:
.LBE1228:
.LBE1230:
.LBE1232:
.LBE1234:
.LBE1236:
.LBE1237:
.LBE1238:
	.cfi_endproc
.LFE8126:
	.cantunwind
	.fnend
	.size	_ZNSt6thread5_ImplISt12_Bind_simpleIFSt7_Mem_fnIM6ClientFvvEEPS3_EEED2Ev, .-_ZNSt6thread5_ImplISt12_Bind_simpleIFSt7_Mem_fnIM6ClientFvvEEPS3_EEED2Ev
	.weak	_ZNSt6thread5_ImplISt12_Bind_simpleIFSt7_Mem_fnIM6ClientFvvEEPS3_EEED1Ev
	.thumb_set _ZNSt6thread5_ImplISt12_Bind_simpleIFSt7_Mem_fnIM6ClientFvvEEPS3_EEED1Ev,_ZNSt6thread5_ImplISt12_Bind_simpleIFSt7_Mem_fnIM6ClientFvvEEPS3_EEED2Ev
	.section	.text._ZNSt6thread5_ImplISt12_Bind_simpleIFSt7_Mem_fnIM6ClientFvvEEPS3_EEED0Ev,"axG",%progbits,_ZNSt6thread5_ImplISt12_Bind_simpleIFSt7_Mem_fnIM6ClientFvvEEPS3_EEED5Ev,comdat
	.align	2
	.weak	_ZNSt6thread5_ImplISt12_Bind_simpleIFSt7_Mem_fnIM6ClientFvvEEPS3_EEED0Ev
	.thumb
	.thumb_func
	.type	_ZNSt6thread5_ImplISt12_Bind_simpleIFSt7_Mem_fnIM6ClientFvvEEPS3_EEED0Ev, %function
_ZNSt6thread5_ImplISt12_Bind_simpleIFSt7_Mem_fnIM6ClientFvvEEPS3_EEED0Ev:
	.fnstart
.LFB8128:
	.loc 5 107 0
	.cfi_startproc
	@ args = 0, pretend = 0, frame = 0
	@ frame_needed = 0, uses_anonymous_args = 0
.LVL50:
	push	{r4, r5, r6, lr}
	.cfi_def_cfa_offset 16
	.cfi_offset 4, -16
	.cfi_offset 5, -12
	.cfi_offset 6, -8
	.cfi_offset 14, -4
	.loc 5 107 0
	mov	r4, r0
.LVL51:
.LBB1299:
.LBB1300:
.LBB1301:
	.loc 5 97 0
	ldr	r3, .L48
.LBB1302:
.LBB1303:
.LBB1304:
.LBB1305:
	.loc 2 665 0
	ldr	r5, [r0, #8]
.LBE1305:
.LBE1304:
.LBE1303:
.LBE1302:
	.loc 5 97 0
	str	r3, [r0]
.LVL52:
.LBB1350:
.LBB1348:
.LBB1346:
.LBB1344:
	.loc 2 665 0
	cbz	r5, .L36
.LVL53:
.LBB1306:
.LBB1307:
.LBB1308:
.LBB1309:
	.loc 7 81 0
	movw	r6, #:lower16:_ZL28__gthrw___pthread_key_createPjPFvPvE
	movt	r6, #:upper16:_ZL28__gthrw___pthread_key_createPjPFvPvE
	cbz	r6, .L37
.LVL54:
.LBB1310:
.LBB1311:
.LBB1312:
	.loc 7 49 0
	adds	r2, r5, #4
.LVL55:
	dmb	sy
.LVL56:
.L45:
	ldrex	r3, [r2]
	subs	r1, r3, #1
	strex	r0, r1, [r2]
	cmp	r0, #0
	bne	.L45
.LBE1312:
.LBE1311:
.LBE1310:
.LBE1309:
.LBE1308:
	.loc 2 146 0
	cmp	r3, #1
.LBB1323:
.LBB1320:
.LBB1315:
.LBB1314:
.LBB1313:
	.loc 7 49 0
	dmb	sy
.LBE1313:
.LBE1314:
.LBE1315:
.LBE1320:
.LBE1323:
	.loc 2 146 0
	beq	.L47
.LVL57:
.L36:
.LBE1307:
.LBE1306:
.LBE1344:
.LBE1346:
.LBE1348:
.LBE1350:
.LBE1301:
.LBE1300:
.LBE1299:
	.loc 5 107 0
	mov	r0, r4
	bl	_ZdlPv
.LVL58:
	mov	r0, r4
	pop	{r4, r5, r6, pc}
.LVL59:
.L37:
.LBB1354:
.LBB1353:
.LBB1352:
.LBB1351:
.LBB1349:
.LBB1347:
.LBB1345:
.LBB1343:
.LBB1342:
.LBB1324:
.LBB1321:
.LBB1316:
.LBB1317:
	.loc 7 67 0
	ldr	r3, [r5, #4]
.LVL60:
.LBE1317:
.LBE1316:
.LBE1321:
.LBE1324:
	.loc 2 146 0
	cmp	r3, #1
.LBB1325:
.LBB1322:
.LBB1319:
.LBB1318:
	.loc 7 68 0
	add	r2, r3, #-1
	str	r2, [r5, #4]
.LBE1318:
.LBE1319:
.LBE1322:
.LBE1325:
	.loc 2 146 0
	bne	.L36
.LVL61:
.L47:
	.loc 2 149 0
	ldr	r2, [r5]
	movw	r3, #:lower16:_ZNSt23_Sp_counted_ptr_inplaceINSt6thread5_ImplISt12_Bind_simpleIFSt7_Mem_fnIM6ClientFvvEEPS4_EEEESaISB_ELN9__gnu_cxx12_Lock_policyE2EE10_M_disposeEv
	movt	r3, #:upper16:_ZNSt23_Sp_counted_ptr_inplaceINSt6thread5_ImplISt12_Bind_simpleIFSt7_Mem_fnIM6ClientFvvEEPS4_EEEESaISB_ELN9__gnu_cxx12_Lock_policyE2EE10_M_disposeEv
	ldr	r2, [r2, #8]
	cmp	r2, r3
	bne	.L40
.LVL62:
.LBB1326:
.LBB1327:
.LBB1328:
.LBB1329:
.LBB1330:
	.loc 3 124 0
	ldr	r3, [r5, #12]
	add	r0, r5, #12
.LVL63:
	ldr	r3, [r3]
	blx	r3
.LVL64:
.L41:
.LBE1330:
.LBE1329:
.LBE1328:
.LBE1327:
.LBE1326:
.LBB1331:
.LBB1332:
	.loc 7 81 0
	cbz	r6, .L42
.LVL65:
.LBB1333:
.LBB1334:
.LBB1335:
	.loc 7 49 0
	add	r2, r5, #8
.LVL66:
	dmb	sy
.L44:
	ldrex	r3, [r2]
	subs	r1, r3, #1
	strex	r0, r1, [r2]
	cmp	r0, #0
	bne	.L44
	dmb	sy
.LVL67:
.L43:
.LBE1335:
.LBE1334:
.LBE1333:
.LBE1332:
.LBE1331:
	.loc 2 162 0
	cmp	r3, #1
	bne	.L36
.LVL68:
.LBB1339:
.LBB1340:
	.loc 2 166 0
	ldr	r3, [r5]
	mov	r0, r5
	ldr	r3, [r3, #12]
	blx	r3
.LVL69:
	b	.L36
.LVL70:
.L42:
.LBE1340:
.LBE1339:
.LBB1341:
.LBB1338:
.LBB1336:
.LBB1337:
	.loc 7 67 0
	ldr	r3, [r5, #8]
.LVL71:
	.loc 7 68 0
	subs	r2, r3, #1
	str	r2, [r5, #8]
	b	.L43
.LVL72:
.L40:
.LBE1337:
.LBE1336:
.LBE1338:
.LBE1341:
	.loc 2 149 0
	mov	r0, r5
	blx	r2
.LVL73:
	b	.L41
.L49:
	.align	2
.L48:
	.word	_ZTVNSt6thread10_Impl_baseE+8
.LBE1342:
.LBE1343:
.LBE1345:
.LBE1347:
.LBE1349:
.LBE1351:
.LBE1352:
.LBE1353:
.LBE1354:
	.cfi_endproc
.LFE8128:
	.cantunwind
	.fnend
	.size	_ZNSt6thread5_ImplISt12_Bind_simpleIFSt7_Mem_fnIM6ClientFvvEEPS3_EEED0Ev, .-_ZNSt6thread5_ImplISt12_Bind_simpleIFSt7_Mem_fnIM6ClientFvvEEPS3_EEED0Ev
	.text
	.align	2
	.global	_ZN6Client9CalculateEv
	.thumb
	.thumb_func
	.type	_ZN6Client9CalculateEv, %function
_ZN6Client9CalculateEv:
	.fnstart
.LFB6977:
	.file 8 "../Client.cpp"
	.loc 8 129 0
	.cfi_startproc
	@ args = 0, pretend = 0, frame = 0
	@ frame_needed = 0, uses_anonymous_args = 0
.LVL74:
	push	{r4, r5, r6, r7, r8, lr}
	.save {r4, r5, r6, r7, r8, lr}
	.cfi_def_cfa_offset 24
	.cfi_offset 4, -24
	.cfi_offset 5, -20
	.cfi_offset 6, -16
	.cfi_offset 7, -12
	.cfi_offset 8, -8
	.cfi_offset 14, -4
	mov	r5, r0
	fstmfdd	sp!, {d8, d9}
	.vsave {d8, d9}
	.cfi_def_cfa_offset 40
	.cfi_offset 80, -40
	.cfi_offset 81, -36
	.cfi_offset 82, -32
	.cfi_offset 83, -28
.LBB1393:
.LBB1394:
	.loc 8 140 0
	movw	r7, #56963
.LBE1394:
	.loc 8 137 0
	bl	clock
.LVL75:
.LBB1460:
	.loc 8 140 0
	movt	r7, 17179
.LBE1460:
	.loc 8 136 0
	movs	r4, #0
.LBB1461:
.LBB1395:
	.loc 8 148 0
	fldd	d9, .L81
.LBE1395:
.LBE1461:
	.loc 8 137 0
	mov	r6, r0
.LVL76:
.L51:
	.loc 8 139 0
	ldrb	r3, [r5, #1]	@ zero_extendqisi2
	cmp	r3, #0
	beq	.L76
.L61:
.LBB1462:
	.loc 8 140 0
	bl	clock
.LVL77:
	fconstd	d6, #112
	subs	r3, r0, r6
	smull	r0, r1, r3, r7
	asrs	r3, r3, #31
	rsb	r3, r3, r1, asr #18
	fmsr	s15, r3	@ int
	fsitod	d7, s15
	fcmped	d7, d6
	fmstat
	bmi	.L77
.LVL78:
.LBB1436:
	.loc 8 148 0
	fmsr	s15, r4	@ int
	fsitod	d0, s15
	.loc 8 149 0
	fdivd	d0, d9, d0
	bl	log10
.LVL79:
.LBB1396:
.LBB1397:
	.file 9 "/usr/include/c++/4.9/ostream"
	.loc 9 535 0
	movw	r0, #:lower16:_ZSt4cout
	movw	r1, #:lower16:.LC0
	movs	r2, #50
	movt	r1, #:upper16:.LC0
	movt	r0, #:upper16:_ZSt4cout
.LBE1397:
.LBE1396:
	.loc 8 149 0
	fcpyd	d8, d0
.LVL80:
.LBB1399:
.LBB1398:
	.loc 9 535 0
	bl	_ZSt16__ostream_insertIcSt11char_traitsIcEERSt13basic_ostreamIT_T0_ES6_PKS3_i
.LVL81:
.LBE1398:
.LBE1399:
.LBB1400:
.LBB1401:
	.loc 9 221 0
	movw	r0, #:lower16:_ZSt4cout
	movt	r0, #:upper16:_ZSt4cout
.LBE1401:
.LBE1400:
	.loc 8 149 0
	fconstd	d0, #52
.LBB1404:
.LBB1402:
	.loc 9 221 0
	fmuld	d0, d8, d0
.LVL82:
	bl	_ZNSo9_M_insertIdEERSoT_
.LVL83:
.LBE1402:
.LBE1404:
.LBB1405:
.LBB1406:
.LBB1407:
	.loc 9 565 0
	ldr	r3, [r0]
.LBE1407:
.LBE1406:
.LBE1405:
.LBB1431:
.LBB1403:
	.loc 9 221 0
	mov	r6, r0
.LVL84:
	ldr	r3, [r3, #-12]
	add	r3, r3, r0
	ldr	r4, [r3, #124]
.LVL85:
.LBE1403:
.LBE1431:
.LBB1432:
.LBB1427:
.LBB1423:
.LBB1408:
.LBB1409:
.LBB1410:
	.file 10 "/usr/include/c++/4.9/bits/basic_ios.h"
	.loc 10 48 0
	cmp	r4, #0
	beq	.L78
.LVL86:
.LBE1410:
.LBE1409:
.LBB1412:
.LBB1413:
	.loc 1 867 0
	ldrb	r3, [r4, #28]	@ zero_extendqisi2
.LVL87:
	cbz	r3, .L59
	.loc 1 868 0
	ldrb	r1, [r4, #39]	@ zero_extendqisi2
.LVL88:
.L60:
.LBE1413:
.LBE1412:
.LBE1408:
	.loc 9 565 0
	mov	r0, r6
.LBE1423:
.LBE1427:
.LBE1432:
	.loc 8 152 0
	movs	r4, #0
.LVL89:
.LBB1433:
.LBB1428:
.LBB1424:
	.loc 9 565 0
	bl	_ZNSo3putEc
.LVL90:
.LBB1419:
.LBB1420:
	.loc 9 587 0
	bl	_ZNSo5flushEv
.LVL91:
.LBE1420:
.LBE1419:
.LBE1424:
.LBE1428:
.LBE1433:
	.loc 8 153 0
	bl	clock
.LVL92:
.LBE1436:
.LBE1462:
	.loc 8 139 0
	ldrb	r3, [r5, #1]	@ zero_extendqisi2
.LBB1463:
.LBB1437:
	.loc 8 153 0
	mov	r6, r0
.LVL93:
.LBE1437:
.LBE1463:
	.loc 8 139 0
	cmp	r3, #0
	bne	.L61
.LVL94:
.L76:
.LBE1393:
	.loc 8 157 0
	fldmfdd	sp!, {d8-d9}
	.cfi_remember_state
	.cfi_restore 82
	.cfi_restore 83
	.cfi_restore 80
	.cfi_restore 81
	.cfi_def_cfa_offset 24
	pop	{r4, r5, r6, r7, r8, pc}
.LVL95:
.L59:
	.cfi_restore_state
.LBB1466:
.LBB1464:
.LBB1438:
.LBB1434:
.LBB1429:
.LBB1425:
.LBB1421:
.LBB1417:
.LBB1416:
.LBB1414:
.LBB1415:
	.loc 1 869 0
	mov	r0, r4
.LVL96:
	bl	_ZNKSt5ctypeIcE13_M_widen_initEv
.LVL97:
	.loc 1 870 0
	ldr	r2, [r4]
	movw	r3, #:lower16:_ZNKSt5ctypeIcE8do_widenEc
	movt	r3, #:upper16:_ZNKSt5ctypeIcE8do_widenEc
	ldr	r2, [r2, #24]
	cmp	r2, r3
	it	eq
	moveq	r1, #10
	beq	.L60
	movs	r1, #10
	mov	r0, r4
	blx	r2
.LVL98:
	mov	r1, r0
	b	.L60
.LVL99:
.L77:
.LBE1415:
.LBE1414:
.LBE1416:
.LBE1417:
.LBE1421:
.LBE1425:
.LBE1429:
.LBE1434:
.LBE1438:
.LBB1439:
.LBB1440:
.LBB1441:
.LBB1442:
.LBB1443:
	.file 11 "/usr/include/arm-linux-gnueabihf/c++/4.9/bits/gthr-default.h"
	.loc 11 747 0
	movw	r8, #:lower16:_ZL28__gthrw___pthread_key_createPjPFvPvE
.LBE1443:
.LBE1442:
	.file 12 "/usr/include/c++/4.9/mutex"
	.loc 12 135 0
	ldr	r0, [r5, #32]
.LVL100:
.LBB1445:
.LBB1444:
	.loc 11 747 0
	movt	r8, #:upper16:_ZL28__gthrw___pthread_key_createPjPFvPvE
	cmp	r8, #0
	beq	.L54
	.loc 11 748 0
	bl	_ZL26__gthrw_pthread_mutex_lockP15pthread_mutex_t
.LVL101:
.LBE1444:
.LBE1445:
	.loc 12 138 0
	cbnz	r0, .L79
.LVL102:
.LBE1441:
.LBE1440:
.LBB1447:
	.loc 8 142 0
	ldr	r1, [r5, #40]
	cmp	r1, #0
	it	gt
	ldrgt	r0, [r5, #32]
	ble	.L80
.L65:
.LBE1447:
.LBE1439:
.LBE1464:
.LBE1466:
	.loc 8 129 0 discriminator 3
	mov	r3, r4
.LVL103:
.L56:
.LBB1467:
.LBB1465:
.LBB1457:
.LBB1448:
	.loc 8 144 0 discriminator 3
	adds	r3, r3, #1
.LVL104:
	subs	r2, r3, r4
.LVL105:
	.loc 8 142 0 discriminator 3
	cmp	r2, r1
	blt	.L56
.LVL106:
	.loc 8 144 0
	mov	r4, r3
.LBE1448:
.LBB1449:
.LBB1450:
.LBB1451:
.LBB1452:
	.loc 11 777 0
	cmp	r8, #0
	beq	.L51
.LVL107:
.L62:
	.loc 11 778 0
	mov	r4, r3
	bl	_ZL28__gthrw_pthread_mutex_unlockP15pthread_mutex_t
.LVL108:
	b	.L51
.LVL109:
.L54:
.LBE1452:
.LBE1451:
.LBE1450:
.LBE1449:
.LBB1454:
	.loc 8 142 0
	ldr	r1, [r5, #40]
	cmp	r1, #0
	bgt	.L65
	b	.L51
.LVL110:
.L80:
.LBE1454:
.LBB1455:
.LBB1453:
	.loc 12 153 0
	mov	r3, r4
	ldr	r0, [r5, #32]
.LVL111:
	b	.L62
.LVL112:
.L78:
.LBE1453:
.LBE1455:
.LBE1457:
.LBB1458:
.LBB1435:
.LBB1430:
.LBB1426:
.LBB1422:
.LBB1418:
.LBB1411:
	.loc 10 49 0
	bl	_ZSt16__throw_bad_castv
.LVL113:
.L79:
.LBE1411:
.LBE1418:
.LBE1422:
.LBE1426:
.LBE1430:
.LBE1435:
.LBE1458:
.LBB1459:
.LBB1456:
.LBB1446:
	.loc 12 139 0
	bl	_ZSt20__throw_system_errori
.LVL114:
.L82:
	.align	3
.L81:
	.word	0
	.word	0
.LBE1446:
.LBE1456:
.LBE1459:
.LBE1465:
.LBE1467:
	.cfi_endproc
.LFE6977:
	.fnend
	.size	_ZN6Client9CalculateEv, .-_ZN6Client9CalculateEv
	.section	.text._ZN2cv3MatD2Ev,"axG",%progbits,_ZN2cv3MatD5Ev,comdat
	.align	2
	.weak	_ZN2cv3MatD2Ev
	.thumb
	.thumb_func
	.type	_ZN2cv3MatD2Ev, %function
_ZN2cv3MatD2Ev:
	.fnstart
.LFB5201:
	.file 13 "/usr/include/opencv2/core/mat.hpp"
	.loc 13 274 0
	.cfi_startproc
	.cfi_personality 0,__gxx_personality_v0
	.cfi_lsda 0,.LLSDA5201
	@ args = 0, pretend = 0, frame = 0
	@ frame_needed = 0, uses_anonymous_args = 0
.LVL115:
.LBB1474:
.LBB1475:
.LBB1476:
	.loc 13 366 0
	ldr	r3, [r0, #20]
.LBE1476:
.LBE1475:
.LBE1474:
	.loc 13 274 0
	push	{r4, lr}
	.save {r4, lr}
	.cfi_def_cfa_offset 8
	.cfi_offset 4, -8
	.cfi_offset 14, -4
	.loc 13 274 0
	mov	r4, r0
.LVL116:
.LBB1489:
.LBB1485:
.LBB1481:
	.loc 13 366 0
	cbz	r3, .L87
.LVL117:
.LBB1477:
.LBB1478:
	.loc 7 49 0
	dmb	sy
.L92:
	ldrex	r2, [r3]
	subs	r1, r2, #1
	strex	lr, r1, [r3]
	cmp	lr, #0
	bne	.L92
.LBE1478:
.LBE1477:
	.loc 13 366 0
	cmp	r2, #1
.LBB1480:
.LBB1479:
	.loc 7 49 0
	dmb	sy
.LBE1479:
.LBE1480:
	.loc 13 366 0
	beq	.L85
.LVL118:
.L87:
.LBE1481:
.LBE1485:
	.loc 13 277 0
	ldr	r0, [r4, #44]
	add	r2, r4, #48
.LBB1486:
.LBB1482:
	.loc 13 369 0
	ldr	r1, [r4, #40]
	.loc 13 368 0
	movs	r3, #0
.LBE1482:
.LBE1486:
	.loc 13 277 0
	cmp	r0, r2
.LBB1487:
.LBB1483:
	.loc 13 368 0
	str	r3, [r4, #32]
	str	r3, [r4, #28]
	str	r3, [r4, #24]
	str	r3, [r4, #16]
	.loc 13 369 0
	str	r3, [r1]
	.loc 13 370 0
	str	r3, [r4, #20]
.LBE1483:
.LBE1487:
	.loc 13 277 0
	beq	.L89
	.loc 13 278 0
	bl	_ZN2cv8fastFreeEPv
.LVL119:
.L89:
.LBE1489:
	.loc 13 279 0
	mov	r0, r4
	pop	{r4, pc}
.LVL120:
.L85:
.LBB1490:
.LBB1488:
.LBB1484:
	.loc 13 367 0
	bl	_ZN2cv3Mat10deallocateEv
.LVL121:
	b	.L87
.LBE1484:
.LBE1488:
.LBE1490:
	.cfi_endproc
.LFE5201:
	.global	__gxx_personality_v0
	.personality	__gxx_personality_v0
	.handlerdata
.LLSDA5201:
	.byte	0xff
	.byte	0xff
	.byte	0x1
	.uleb128 .LLSDACSE5201-.LLSDACSB5201
.LLSDACSB5201:
.LLSDACSE5201:
	.section	.text._ZN2cv3MatD2Ev,"axG",%progbits,_ZN2cv3MatD5Ev,comdat
	.fnend
	.size	_ZN2cv3MatD2Ev, .-_ZN2cv3MatD2Ev
	.weak	_ZN2cv3MatD1Ev
	.thumb_set _ZN2cv3MatD1Ev,_ZN2cv3MatD2Ev
	.text
	.align	2
	.global	_ZN6ClientC2EPcS0_ii
	.thumb
	.thumb_func
	.type	_ZN6ClientC2EPcS0_ii, %function
_ZN6ClientC2EPcS0_ii:
	.fnstart
.LFB6961:
	.loc 8 29 0
	.cfi_startproc
	@ args = 4, pretend = 0, frame = 0
	@ frame_needed = 0, uses_anonymous_args = 0
	@ link register save eliminated.
.LVL122:
	push	{r4, r5}
	.cfi_def_cfa_offset 8
	.cfi_offset 4, -8
	.cfi_offset 5, -4
	.loc 8 29 0
	ldr	r5, [sp, #8]
.LBB1491:
	.loc 8 32 0
	str	r1, [r0, #4]
	.loc 8 30 0
	movs	r1, #1
.LVL123:
	.loc 8 33 0
	str	r2, [r0, #8]
	.loc 8 31 0
	movs	r2, #0
.LVL124:
	.loc 8 35 0
	str	r5, [r0, #16]
	.loc 8 34 0
	str	r3, [r0, #12]
	.loc 8 30 0
	strb	r1, [r0]
	.loc 8 31 0
	strb	r2, [r0, #1]
.LBE1491:
	.loc 8 37 0
	pop	{r4, r5}
	.cfi_restore 5
	.cfi_restore 4
	.cfi_def_cfa_offset 0
.LVL125:
	bx	lr
	.cfi_endproc
.LFE6961:
	.cantunwind
	.fnend
	.size	_ZN6ClientC2EPcS0_ii, .-_ZN6ClientC2EPcS0_ii
	.global	_ZN6ClientC1EPcS0_ii
	.thumb_set _ZN6ClientC1EPcS0_ii,_ZN6ClientC2EPcS0_ii
	.align	2
	.global	_ZN6ClientD2Ev
	.thumb
	.thumb_func
	.type	_ZN6ClientD2Ev, %function
_ZN6ClientD2Ev:
	.fnstart
.LFB6964:
	.loc 8 38 0
	.cfi_startproc
	@ args = 0, pretend = 0, frame = 0
	@ frame_needed = 0, uses_anonymous_args = 0
	@ link register save eliminated.
.LVL126:
	.loc 8 38 0
	bx	lr
	.cfi_endproc
.LFE6964:
	.cantunwind
	.fnend
	.size	_ZN6ClientD2Ev, .-_ZN6ClientD2Ev
	.global	_ZN6ClientD1Ev
	.thumb_set _ZN6ClientD1Ev,_ZN6ClientD2Ev
	.align	2
	.global	_ZN6Client4StopEv
	.thumb
	.thumb_func
	.type	_ZN6Client4StopEv, %function
_ZN6Client4StopEv:
	.fnstart
.LFB6967:
	.loc 8 45 0
	.cfi_startproc
	@ args = 0, pretend = 0, frame = 0
	@ frame_needed = 0, uses_anonymous_args = 0
	@ link register save eliminated.
.LVL127:
	.loc 8 46 0
	movs	r3, #0
	strb	r3, [r0, #1]
	bx	lr
	.cfi_endproc
.LFE6967:
	.cantunwind
	.fnend
	.size	_ZN6Client4StopEv, .-_ZN6Client4StopEv
	.align	2
	.global	_ZN6Client5PauseEv
	.thumb
	.thumb_func
	.type	_ZN6Client5PauseEv, %function
_ZN6Client5PauseEv:
	.fnstart
.LFB6968:
	.loc 8 48 0
	.cfi_startproc
	@ args = 0, pretend = 0, frame = 0
	@ frame_needed = 0, uses_anonymous_args = 0
	@ link register save eliminated.
.LVL128:
	.loc 8 49 0
	movs	r3, #1
	strb	r3, [r0]
	bx	lr
	.cfi_endproc
.LFE6968:
	.cantunwind
	.fnend
	.size	_ZN6Client5PauseEv, .-_ZN6Client5PauseEv
	.align	2
	.global	_ZN6Client6ResumeEv
	.thumb
	.thumb_func
	.type	_ZN6Client6ResumeEv, %function
_ZN6Client6ResumeEv:
	.fnstart
.LFB6969:
	.loc 8 51 0
	.cfi_startproc
	@ args = 0, pretend = 0, frame = 0
	@ frame_needed = 0, uses_anonymous_args = 0
	@ link register save eliminated.
.LVL129:
	.loc 8 52 0
	movs	r3, #0
	strb	r3, [r0]
	bx	lr
	.cfi_endproc
.LFE6969:
	.cantunwind
	.fnend
	.size	_ZN6Client6ResumeEv, .-_ZN6Client6ResumeEv
	.align	2
	.global	_ZN6Client13SetSchedulingERSt6threadii
	.thumb
	.thumb_func
	.type	_ZN6Client13SetSchedulingERSt6threadii, %function
_ZN6Client13SetSchedulingERSt6threadii:
	.fnstart
.LFB6979:
	.loc 8 224 0
	.cfi_startproc
	@ args = 0, pretend = 0, frame = 8
	@ frame_needed = 0, uses_anonymous_args = 0
.LVL130:
	push	{r4, r5, lr}
	.save {r4, r5, lr}
	.cfi_def_cfa_offset 12
	.cfi_offset 4, -12
	.cfi_offset 5, -8
	.cfi_offset 14, -4
	.pad #12
	sub	sp, sp, #12
	.cfi_def_cfa_offset 24
.LBB1532:
	.loc 8 226 0
	add	r4, sp, #8
	.loc 8 227 0
	ldr	r0, [r1]
.LVL131:
	mov	r1, r2
.LVL132:
	.loc 8 226 0
	str	r3, [r4, #-4]!
.LVL133:
	.loc 8 227 0
	mov	r2, r4
.LVL134:
	bl	pthread_setschedparam
.LVL135:
	cbnz	r0, .L112
.LBE1532:
	.loc 8 230 0
	add	sp, sp, #12
	.cfi_remember_state
	.cfi_def_cfa_offset 12
	@ sp needed
	pop	{r4, r5, pc}
.L112:
	.cfi_restore_state
.LVL136:
.LBB1533:
.LBB1534:
.LBB1535:
.LBB1536:
	.loc 9 535 0
	movw	r4, #:lower16:_ZSt4cerr
	movw	r1, #:lower16:.LC1
	movt	r4, #:upper16:_ZSt4cerr
	movt	r1, #:upper16:.LC1
	movs	r2, #34
	mov	r0, r4
	bl	_ZSt16__ostream_insertIcSt11char_traitsIcEERSt13basic_ostreamIT_T0_ES6_PKS3_i
.LVL137:
.LBE1536:
.LBE1535:
	.loc 8 228 0
	bl	__errno_location
.LVL138:
	ldr	r0, [r0]
	bl	strerror
.LVL139:
.LBB1537:
.LBB1538:
	.loc 9 532 0
	mov	r5, r0
	cbz	r0, .L113
.LVL140:
.LBB1539:
.LBB1540:
	.file 14 "/usr/include/c++/4.9/bits/char_traits.h"
	.loc 14 263 0
	bl	strlen
.LVL141:
.LBE1540:
.LBE1539:
	.loc 9 535 0
	mov	r1, r5
.LBB1542:
.LBB1541:
	.loc 14 263 0
	mov	r2, r0
.LBE1541:
.LBE1542:
	.loc 9 535 0
	mov	r0, r4
	bl	_ZSt16__ostream_insertIcSt11char_traitsIcEERSt13basic_ostreamIT_T0_ES6_PKS3_i
.LVL142:
.L103:
.LBE1538:
.LBE1537:
.LBB1550:
.LBB1551:
.LBB1552:
	.loc 9 565 0
	ldr	r3, [r4]
	ldr	r3, [r3, #-12]
	add	r4, r4, r3
	ldr	r4, [r4, #124]
.LVL143:
.LBB1553:
.LBB1554:
.LBB1555:
	.loc 10 48 0
	cbz	r4, .L114
.LVL144:
.LBE1555:
.LBE1554:
.LBB1557:
.LBB1558:
	.loc 1 867 0
	ldrb	r3, [r4, #28]	@ zero_extendqisi2
	cbz	r3, .L105
	.loc 1 868 0
	ldrb	r1, [r4, #39]	@ zero_extendqisi2
.LVL145:
.L106:
.LBE1558:
.LBE1557:
.LBE1553:
	.loc 9 565 0
	movw	r0, #:lower16:_ZSt4cerr
	movt	r0, #:upper16:_ZSt4cerr
	bl	_ZNSo3putEc
.LVL146:
.LBB1564:
.LBB1565:
	.loc 9 587 0
	bl	_ZNSo5flushEv
.LVL147:
.LBE1565:
.LBE1564:
.LBE1552:
.LBE1551:
.LBE1550:
.LBE1534:
.LBE1533:
	.loc 8 230 0
	add	sp, sp, #12
	.cfi_remember_state
	.cfi_def_cfa_offset 12
	@ sp needed
	pop	{r4, r5, pc}
.LVL148:
.L105:
	.cfi_restore_state
.LBB1576:
.LBB1575:
.LBB1572:
.LBB1570:
.LBB1568:
.LBB1566:
.LBB1562:
.LBB1561:
.LBB1559:
.LBB1560:
	.loc 1 869 0
	mov	r0, r4
	bl	_ZNKSt5ctypeIcE13_M_widen_initEv
.LVL149:
	.loc 1 870 0
	ldr	r2, [r4]
	movw	r3, #:lower16:_ZNKSt5ctypeIcE8do_widenEc
	movt	r3, #:upper16:_ZNKSt5ctypeIcE8do_widenEc
	ldr	r2, [r2, #24]
	cmp	r2, r3
	it	eq
	moveq	r1, #10
	beq	.L106
	movs	r1, #10
	mov	r0, r4
	blx	r2
.LVL150:
	mov	r1, r0
	b	.L106
.LVL151:
.L113:
.LBE1560:
.LBE1559:
.LBE1561:
.LBE1562:
.LBE1566:
.LBE1568:
.LBE1570:
.LBE1572:
.LBB1573:
.LBB1549:
.LBB1543:
.LBB1544:
	.loc 9 533 0
	ldr	r3, [r4]
	ldr	r0, [r3, #-12]
.LVL152:
	add	r0, r0, r4
.LVL153:
.LBB1545:
.LBB1546:
.LBB1547:
.LBB1548:
	.file 15 "/usr/include/c++/4.9/bits/ios_base.h"
	.loc 15 158 0
	ldr	r1, [r0, #20]
.LBE1548:
.LBE1547:
	.loc 10 152 0
	orr	r1, r1, #1
	bl	_ZNSt9basic_iosIcSt11char_traitsIcEE5clearESt12_Ios_Iostate
.LVL154:
	b	.L103
.LVL155:
.L114:
.LBE1546:
.LBE1545:
.LBE1544:
.LBE1543:
.LBE1549:
.LBE1573:
.LBB1574:
.LBB1571:
.LBB1569:
.LBB1567:
.LBB1563:
.LBB1556:
	.loc 10 49 0
	bl	_ZSt16__throw_bad_castv
.LVL156:
.LBE1556:
.LBE1563:
.LBE1567:
.LBE1569:
.LBE1571:
.LBE1574:
.LBE1575:
.LBE1576:
	.cfi_endproc
.LFE6979:
	.fnend
	.size	_ZN6Client13SetSchedulingERSt6threadii, .-_ZN6Client13SetSchedulingERSt6threadii
	.section	.text._ZNSt16_Sp_counted_baseILN9__gnu_cxx12_Lock_policyE2EE10_M_releaseEv,"axG",%progbits,_ZNSt16_Sp_counted_baseILN9__gnu_cxx12_Lock_policyE2EE10_M_releaseEv,comdat
	.align	2
	.weak	_ZNSt16_Sp_counted_baseILN9__gnu_cxx12_Lock_policyE2EE10_M_releaseEv
	.thumb
	.thumb_func
	.type	_ZNSt16_Sp_counted_baseILN9__gnu_cxx12_Lock_policyE2EE10_M_releaseEv, %function
_ZNSt16_Sp_counted_baseILN9__gnu_cxx12_Lock_policyE2EE10_M_releaseEv:
	.fnstart
.LFB7322:
	.loc 2 142 0
	.cfi_startproc
	@ args = 0, pretend = 0, frame = 0
	@ frame_needed = 0, uses_anonymous_args = 0
.LVL157:
	push	{r4, r5, r6, lr}
	.cfi_def_cfa_offset 16
	.cfi_offset 4, -16
	.cfi_offset 5, -12
	.cfi_offset 6, -8
	.cfi_offset 14, -4
.LBB1635:
.LBB1636:
	.loc 7 81 0
	movw	r4, #:lower16:_ZL28__gthrw___pthread_key_createPjPFvPvE
.LVL158:
	movt	r4, #:upper16:_ZL28__gthrw___pthread_key_createPjPFvPvE
	cbz	r4, .L116
.LVL159:
.LBB1637:
.LBB1638:
.LBB1639:
	.loc 7 49 0
	adds	r2, r0, #4
.LVL160:
	dmb	sy
.L126:
	ldrex	r3, [r2]
	subs	r1, r3, #1
	strex	r5, r1, [r2]
	cmp	r5, #0
	bne	.L126
.LBE1639:
.LBE1638:
.LBE1637:
.LBE1636:
.LBE1635:
	.loc 2 146 0
	cmp	r3, #1
.LBB1650:
.LBB1647:
.LBB1642:
.LBB1641:
.LBB1640:
	.loc 7 49 0
	dmb	sy
.LBE1640:
.LBE1641:
.LBE1642:
.LBE1647:
.LBE1650:
	.loc 2 146 0
	beq	.L128
.LVL161:
.L115:
	pop	{r4, r5, r6, pc}
.LVL162:
.L116:
.LBB1651:
.LBB1648:
.LBB1643:
.LBB1644:
	.loc 7 67 0
	ldr	r3, [r0, #4]
.LVL163:
.LBE1644:
.LBE1643:
.LBE1648:
.LBE1651:
	.loc 2 146 0
	cmp	r3, #1
.LBB1652:
.LBB1649:
.LBB1646:
.LBB1645:
	.loc 7 68 0
	add	r2, r3, #-1
	str	r2, [r0, #4]
.LBE1645:
.LBE1646:
.LBE1649:
.LBE1652:
	.loc 2 146 0
	bne	.L115
.LVL164:
.L128:
	.loc 2 149 0
	ldr	r2, [r0]
	movw	r3, #:lower16:_ZNSt23_Sp_counted_ptr_inplaceINSt6thread5_ImplISt12_Bind_simpleIFSt7_Mem_fnIM6ClientFvvEEPS4_EEEESaISB_ELN9__gnu_cxx12_Lock_policyE2EE10_M_disposeEv
	movt	r3, #:upper16:_ZNSt23_Sp_counted_ptr_inplaceINSt6thread5_ImplISt12_Bind_simpleIFSt7_Mem_fnIM6ClientFvvEEPS4_EEEESaISB_ELN9__gnu_cxx12_Lock_policyE2EE10_M_disposeEv
	mov	r5, r0
	ldr	r2, [r2, #8]
	cmp	r2, r3
	bne	.L120
.LVL165:
.LBB1653:
.LBB1654:
.LBB1655:
.LBB1656:
.LBB1657:
	.loc 3 124 0
	ldr	r3, [r0, #12]
	adds	r0, r0, #12
.LVL166:
	ldr	r3, [r3]
	blx	r3
.LVL167:
.L121:
.LBE1657:
.LBE1656:
.LBE1655:
.LBE1654:
.LBE1653:
.LBB1658:
.LBB1659:
	.loc 7 81 0
	cbz	r4, .L122
.LVL168:
.LBB1660:
.LBB1661:
.LBB1662:
	.loc 7 49 0
	add	r2, r5, #8
.LVL169:
	dmb	sy
.L125:
	ldrex	r3, [r2]
	subs	r1, r3, #1
	strex	r0, r1, [r2]
	cmp	r0, #0
	bne	.L125
	dmb	sy
.LVL170:
.L123:
.LBE1662:
.LBE1661:
.LBE1660:
.LBE1659:
.LBE1658:
	.loc 2 162 0
	cmp	r3, #1
	bne	.L115
.LVL171:
.LBB1666:
.LBB1667:
	.loc 2 166 0
	ldr	r3, [r5]
	mov	r0, r5
.LBE1667:
.LBE1666:
	.loc 2 169 0
	pop	{r4, r5, r6, lr}
	.cfi_remember_state
	.cfi_restore 14
	.cfi_restore 6
	.cfi_restore 5
	.cfi_restore 4
	.cfi_def_cfa_offset 0
.LVL172:
.LBB1669:
.LBB1668:
	.loc 2 166 0
	ldr	r3, [r3, #12]
	bx	r3	@ indirect register sibling call
.LVL173:
.L122:
	.cfi_restore_state
.LBE1668:
.LBE1669:
.LBB1670:
.LBB1665:
.LBB1663:
.LBB1664:
	.loc 7 67 0
	ldr	r3, [r5, #8]
.LVL174:
	.loc 7 68 0
	subs	r2, r3, #1
	str	r2, [r5, #8]
	b	.L123
.LVL175:
.L120:
.LBE1664:
.LBE1663:
.LBE1665:
.LBE1670:
	.loc 2 149 0
	blx	r2
.LVL176:
	b	.L121
	.cfi_endproc
.LFE7322:
	.cantunwind
	.fnend
	.size	_ZNSt16_Sp_counted_baseILN9__gnu_cxx12_Lock_policyE2EE10_M_releaseEv, .-_ZNSt16_Sp_counted_baseILN9__gnu_cxx12_Lock_policyE2EE10_M_releaseEv
	.text
	.align	2
	.global	_ZN6Client6StreamEv
	.thumb
	.thumb_func
	.type	_ZN6Client6StreamEv, %function
_ZN6Client6StreamEv:
	.fnstart
.LFB6966:
	.loc 8 39 0
	.cfi_startproc
	.cfi_personality 0,__gxx_personality_v0
	.cfi_lsda 0,.LLSDA6966
	@ args = 0, pretend = 0, frame = 8
	@ frame_needed = 0, uses_anonymous_args = 0
.LVL177:
	push	{r4, r5, r6, r7, lr}
	.save {r4, r5, r6, r7, lr}
	.cfi_def_cfa_offset 20
	.cfi_offset 4, -20
	.cfi_offset 5, -16
	.cfi_offset 6, -12
	.cfi_offset 7, -8
	.cfi_offset 14, -4
	.loc 8 40 0
	movs	r3, #1
	.loc 8 41 0
	movs	r4, #0
	.loc 8 40 0
	strb	r3, [r0, #1]
	.loc 8 41 0
	strb	r4, [r0]
	.loc 8 39 0
	.pad #12
	sub	sp, sp, #12
	.cfi_def_cfa_offset 32
	.loc 8 39 0
	mov	r5, r0
	.loc 8 42 0
	movs	r0, #4
.LVL178:
.LEHB0:
	bl	_Znwj
.LEHE0:
.LVL179:
.LBB1875:
.LBB1876:
	.loc 5 136 0
	movw	r3, #:lower16:pthread_create
	movt	r3, #:upper16:pthread_create
.LBE1876:
.LBE1875:
	.loc 8 42 0
	mov	r6, r0
.LVL180:
.LBB2083:
.LBB2080:
.LBB1877:
.LBB1878:
	.loc 5 73 0
	str	r4, [r0]
.LBE1878:
.LBE1877:
	.loc 5 136 0
.LVL181:
.LBB1879:
.LBB1880:
.LBB1881:
.LBB1882:
.LBB1883:
.LBB1884:
.LBB1885:
.LBB1886:
.LBB1887:
.LBB1888:
.LBB1889:
	.loc 3 104 0
	movs	r0, #36
.LVL182:
.LEHB1:
	bl	_Znwj
.LEHE1:
.LVL183:
.LBE1889:
.LBE1888:
.LBE1887:
.LBB1892:
.LBB1893:
.LBB1894:
.LBB1895:
.LBB1896:
	.loc 2 511 0
	ldr	r1, .L155
.LBE1896:
.LBE1895:
.LBE1894:
.LBE1893:
.LBE1892:
.LBB1974:
.LBB1891:
.LBB1890:
	.loc 3 104 0
	mov	r4, r0
.LVL184:
.LBE1890:
.LBE1891:
.LBE1974:
.LBB1975:
.LBB1970:
.LBB1966:
.LBB1962:
.LBB1958:
.LBB1897:
.LBB1898:
.LBB1899:
.LBB1900:
.LBB1901:
	.loc 5 111 0
	ldr	r2, .L155+4
.LBE1901:
.LBE1900:
.LBE1899:
.LBE1898:
.LBE1897:
.LBE1958:
.LBE1962:
.LBE1966:
.LBE1970:
.LBE1975:
.LBE1886:
.LBE1885:
.LBB1982:
.LBB1983:
.LBB1984:
.LBB1985:
	.loc 2 543 0
	movw	r0, #:lower16:_ZTISt19_Sp_make_shared_tag
.LBE1985:
.LBE1984:
.LBE1983:
.LBE1982:
.LBB2002:
.LBB1979:
.LBB1976:
.LBB1971:
.LBB1967:
.LBB1963:
.LBB1959:
.LBB1949:
.LBB1944:
.LBB1939:
.LBB1934:
.LBB1929:
.LBB1902:
.LBB1903:
.LBB1904:
.LBB1905:
.LBB1906:
	.file 16 "/usr/include/c++/4.9/tuple"
	.loc 16 142 0
	movw	r3, #:lower16:_ZN6Client12CaptureVideoEv
.LBE1906:
.LBE1905:
.LBE1904:
.LBE1903:
.LBE1902:
.LBE1929:
.LBE1934:
.LBE1939:
.LBE1944:
.LBE1949:
.LBE1959:
.LBE1963:
.LBE1967:
.LBE1971:
.LBE1976:
.LBE1979:
.LBE2002:
.LBB2003:
.LBB1998:
.LBB1994:
.LBB1990:
	.loc 2 543 0
	movt	r0, #:upper16:_ZTISt19_Sp_make_shared_tag
.LBE1990:
.LBE1994:
.LBE1998:
.LBE2003:
.LBB2004:
.LBB1980:
.LBB1977:
.LBB1972:
.LBB1968:
.LBB1964:
.LBB1960:
.LBB1950:
.LBB1945:
.LBB1940:
.LBB1935:
.LBB1930:
.LBB1922:
.LBB1919:
.LBB1916:
.LBB1910:
.LBB1907:
	.loc 16 142 0
	movt	r3, #:upper16:_ZN6Client12CaptureVideoEv
.LBE1907:
.LBE1910:
.LBE1916:
.LBE1919:
.LBE1922:
.LBE1930:
.LBE1935:
.LBE1940:
.LBE1945:
.LBE1950:
	.loc 2 511 0
	str	r1, [r4]
.LBB1951:
.LBB1946:
.LBB1941:
.LBB1936:
.LBB1931:
	.loc 5 111 0
	str	r2, [r4, #12]
.LBE1931:
.LBE1936:
.LBE1941:
.LBE1946:
.LBE1951:
.LBE1960:
.LBE1964:
.LBE1968:
.LBE1972:
.LBE1977:
.LBE1980:
.LBE2004:
.LBB2005:
.LBB1999:
.LBB1995:
.LBB1991:
	.loc 2 543 0
	mov	r1, r0
.LBE1991:
.LBE1995:
.LBE1999:
.LBE2005:
.LBB2006:
.LBB1981:
.LBB1978:
.LBB1973:
.LBB1969:
.LBB1965:
.LBB1961:
.LBB1952:
.LBB1953:
	.loc 2 112 0
	movs	r2, #1
.LBE1953:
.LBE1952:
.LBB1955:
.LBB1947:
.LBB1942:
.LBB1937:
.LBB1932:
.LBB1923:
.LBB1920:
.LBB1917:
.LBB1911:
.LBB1908:
	.loc 16 142 0
	str	r3, [r4, #28]
.LBE1908:
.LBE1911:
.LBB1912:
.LBB1913:
.LBB1914:
	str	r5, [r4, #24]
.LBE1914:
.LBE1913:
.LBE1912:
.LBE1917:
.LBE1920:
.LBE1923:
.LBB1924:
.LBB1925:
	.loc 5 97 0
	movs	r3, #0
.LBE1925:
.LBE1924:
.LBE1932:
.LBE1937:
.LBE1942:
.LBE1947:
.LBE1955:
.LBB1956:
.LBB1954:
	.loc 2 112 0
	str	r2, [r4, #4]
	str	r2, [r4, #8]
.LVL185:
.LBE1954:
.LBE1956:
.LBB1957:
.LBB1948:
.LBB1943:
.LBB1938:
.LBB1933:
.LBB1927:
.LBB1926:
	.loc 5 97 0
	str	r3, [r4, #16]
	str	r3, [r4, #20]
.LVL186:
.LBE1926:
.LBE1927:
.LBB1928:
.LBB1921:
.LBB1918:
.LBB1915:
.LBB1909:
	.loc 16 142 0
	str	r3, [r4, #32]
.LVL187:
.LBE1909:
.LBE1915:
.LBE1918:
.LBE1921:
.LBE1928:
.LBE1933:
.LBE1938:
.LBE1943:
.LBE1948:
.LBE1957:
.LBE1961:
.LBE1965:
.LBE1969:
.LBE1973:
.LBE1978:
.LBE1981:
.LBE2006:
.LBB2007:
.LBB2000:
.LBB1996:
.LBB1992:
	.loc 2 543 0
	bl	_ZNKSt9type_infoeqERKS_
.LVL188:
	cmp	r0, #0
	beq	.L142
.LVL189:
.LBB1986:
.LBB1987:
.LBB1988:
.LBB1989:
	.loc 4 53 0
	add	r3, r4, #12
.LVL190:
.L130:
.LBE1989:
.LBE1988:
.LBE1987:
.LBE1986:
.LBE1992:
.LBE1996:
.LBE2000:
.LBE2007:
.LBE1884:
.LBE1883:
.LBE1882:
.LBE1881:
.LBE1880:
.LBE1879:
	.loc 5 138 0
	mov	r0, r6
	mov	r1, sp
.LBB2014:
.LBB2015:
.LBB2016:
.LBB2017:
.LBB2018:
	.loc 2 696 0
	stmia	sp, {r3, r4}
.LEHB2:
.LBE2018:
.LBE2017:
.LBE2016:
.LBE2015:
.LBE2014:
	.loc 5 138 0
	bl	_ZNSt6thread15_M_start_threadESt10shared_ptrINS_10_Impl_baseEE
.LEHE2:
.LVL191:
.LBB2019:
.LBB2020:
.LBB2021:
.LBB2022:
.LBB2023:
	.loc 2 665 0
	ldr	r4, [sp, #4]
.LVL192:
	cbz	r4, .L138
.LVL193:
.LBB2024:
.LBB2025:
.LBB2026:
.LBB2027:
	.loc 7 81 0
	movw	r7, #:lower16:_ZL28__gthrw___pthread_key_createPjPFvPvE
	movt	r7, #:upper16:_ZL28__gthrw___pthread_key_createPjPFvPvE
	cbz	r7, .L132
.LVL194:
.LBB2028:
.LBB2029:
.LBB2030:
	.loc 7 49 0
	adds	r2, r4, #4
.LVL195:
	dmb	sy
.L152:
	ldrex	r3, [r2]
	subs	r1, r3, #1
	strex	r0, r1, [r2]
	cmp	r0, #0
	bne	.L152
.LBE2030:
.LBE2029:
.LBE2028:
.LBE2027:
.LBE2026:
	.loc 2 146 0
	cmp	r3, #1
.LBB2041:
.LBB2038:
.LBB2033:
.LBB2032:
.LBB2031:
	.loc 7 49 0
	dmb	sy
.LBE2031:
.LBE2032:
.LBE2033:
.LBE2038:
.LBE2041:
	.loc 2 146 0
	beq	.L154
.LVL196:
.L138:
.LBE2025:
.LBE2024:
.LBE2023:
.LBE2022:
.LBE2021:
.LBE2020:
.LBE2019:
.LBE2080:
.LBE2083:
	.loc 8 42 0
	str	r6, [r5, #28]
	.loc 8 44 0
	add	sp, sp, #12
	.cfi_remember_state
	.cfi_def_cfa_offset 20
.LVL197:
	@ sp needed
	pop	{r4, r5, r6, r7, pc}
.LVL198:
.L132:
	.cfi_restore_state
.LBB2084:
.LBB2081:
.LBB2072:
.LBB2070:
.LBB2068:
.LBB2066:
.LBB2064:
.LBB2062:
.LBB2060:
.LBB2042:
.LBB2039:
.LBB2034:
.LBB2035:
	.loc 7 67 0
	ldr	r3, [r4, #4]
.LVL199:
.LBE2035:
.LBE2034:
.LBE2039:
.LBE2042:
	.loc 2 146 0
	cmp	r3, #1
.LBB2043:
.LBB2040:
.LBB2037:
.LBB2036:
	.loc 7 68 0
	add	r2, r3, #-1
	str	r2, [r4, #4]
.LBE2036:
.LBE2037:
.LBE2040:
.LBE2043:
	.loc 2 146 0
	bne	.L138
.LVL200:
.L154:
	.loc 2 149 0
	ldr	r2, [r4]
	movw	r3, #:lower16:_ZNSt23_Sp_counted_ptr_inplaceINSt6thread5_ImplISt12_Bind_simpleIFSt7_Mem_fnIM6ClientFvvEEPS4_EEEESaISB_ELN9__gnu_cxx12_Lock_policyE2EE10_M_disposeEv
	movt	r3, #:upper16:_ZNSt23_Sp_counted_ptr_inplaceINSt6thread5_ImplISt12_Bind_simpleIFSt7_Mem_fnIM6ClientFvvEEPS4_EEEESaISB_ELN9__gnu_cxx12_Lock_policyE2EE10_M_disposeEv
	ldr	r2, [r2, #8]
	cmp	r2, r3
	bne	.L134
.LVL201:
.LBB2044:
.LBB2045:
.LBB2046:
.LBB2047:
.LBB2048:
	.loc 3 124 0
	ldr	r3, [r4, #12]
	add	r0, r4, #12
.LVL202:
	ldr	r3, [r3]
	blx	r3
.LVL203:
.L135:
.LBE2048:
.LBE2047:
.LBE2046:
.LBE2045:
.LBE2044:
.LBB2049:
.LBB2050:
	.loc 7 81 0
	cbz	r7, .L136
.LVL204:
.LBB2051:
.LBB2052:
.LBB2053:
	.loc 7 49 0
	add	r2, r4, #8
.LVL205:
	dmb	sy
.L151:
	ldrex	r3, [r2]
	subs	r1, r3, #1
	strex	r0, r1, [r2]
	cmp	r0, #0
	bne	.L151
	dmb	sy
.LVL206:
.L137:
.LBE2053:
.LBE2052:
.LBE2051:
.LBE2050:
.LBE2049:
	.loc 2 162 0
	cmp	r3, #1
	bne	.L138
.LVL207:
.LBB2057:
.LBB2058:
	.loc 2 166 0
	ldr	r3, [r4]
	mov	r0, r4
	ldr	r3, [r3, #12]
	blx	r3
.LVL208:
	b	.L138
.LVL209:
.L142:
.LBE2058:
.LBE2057:
.LBE2060:
.LBE2062:
.LBE2064:
.LBE2066:
.LBE2068:
.LBE2070:
.LBE2072:
.LBB2073:
.LBB2013:
.LBB2012:
.LBB2011:
.LBB2010:
.LBB2009:
.LBB2008:
.LBB2001:
.LBB1997:
.LBB1993:
	.loc 2 546 0
	mov	r3, r0
	b	.L130
.LVL210:
.L136:
.LBE1993:
.LBE1997:
.LBE2001:
.LBE2008:
.LBE2009:
.LBE2010:
.LBE2011:
.LBE2012:
.LBE2013:
.LBE2073:
.LBB2074:
.LBB2071:
.LBB2069:
.LBB2067:
.LBB2065:
.LBB2063:
.LBB2061:
.LBB2059:
.LBB2056:
.LBB2054:
.LBB2055:
	.loc 7 67 0
	ldr	r3, [r4, #8]
.LVL211:
	.loc 7 68 0
	subs	r2, r3, #1
	str	r2, [r4, #8]
	b	.L137
.LVL212:
.L134:
.LBE2055:
.LBE2054:
.LBE2056:
.LBE2059:
	.loc 2 149 0
	mov	r0, r4
	blx	r2
.LVL213:
	b	.L135
.LVL214:
.L143:
.L141:
.LBE2061:
.LBE2063:
.LBE2065:
.LBE2067:
.LBE2069:
.LBE2071:
.LBE2074:
.LBE2081:
.LBE2084:
	.loc 8 42 0 discriminator 3
	mov	r0, r6
	bl	_ZdlPv
.LVL215:
.LEHB3:
	bl	__cxa_end_cleanup
.LEHE3:
.LVL216:
.L144:
.LBB2085:
.LBB2082:
.LBB2075:
.LBB2076:
.LBB2077:
.LBB2078:
.LBB2079:
	.loc 2 665 0
	ldr	r0, [sp, #4]
	cmp	r0, #0
	beq	.L141
	.loc 2 666 0
	bl	_ZNSt16_Sp_counted_baseILN9__gnu_cxx12_Lock_policyE2EE10_M_releaseEv
.LVL217:
	b	.L141
.L156:
	.align	2
.L155:
	.word	_ZTVSt23_Sp_counted_ptr_inplaceINSt6thread5_ImplISt12_Bind_simpleIFSt7_Mem_fnIM6ClientFvvEEPS4_EEEESaISB_ELN9__gnu_cxx12_Lock_policyE2EE+8
	.word	_ZTVNSt6thread5_ImplISt12_Bind_simpleIFSt7_Mem_fnIM6ClientFvvEEPS3_EEEE+8
.LBE2079:
.LBE2078:
.LBE2077:
.LBE2076:
.LBE2075:
.LBE2082:
.LBE2085:
	.cfi_endproc
.LFE6966:
	.personality	__gxx_personality_v0
	.handlerdata
.LLSDA6966:
	.byte	0xff
	.byte	0xff
	.byte	0x1
	.uleb128 .LLSDACSE6966-.LLSDACSB6966
.LLSDACSB6966:
	.uleb128 .LEHB0-.LFB6966
	.uleb128 .LEHE0-.LEHB0
	.uleb128 0
	.uleb128 0
	.uleb128 .LEHB1-.LFB6966
	.uleb128 .LEHE1-.LEHB1
	.uleb128 .L143-.LFB6966
	.uleb128 0
	.uleb128 .LEHB2-.LFB6966
	.uleb128 .LEHE2-.LEHB2
	.uleb128 .L144-.LFB6966
	.uleb128 0
	.uleb128 .LEHB3-.LFB6966
	.uleb128 .LEHE3-.LEHB3
	.uleb128 0
	.uleb128 0
.LLSDACSE6966:
	.text
	.fnend
	.size	_ZN6Client6StreamEv, .-_ZN6Client6StreamEv
	.section	.text.startup,"ax",%progbits
	.align	2
	.thumb
	.thumb_func
	.type	_GLOBAL__sub_I__ZN6ClientC2EPcS0_ii, %function
_GLOBAL__sub_I__ZN6ClientC2EPcS0_ii:
	.fnstart
.LFB8169:
	.loc 8 230 0
	.cfi_startproc
	@ args = 0, pretend = 0, frame = 0
	@ frame_needed = 0, uses_anonymous_args = 0
.LVL218:
	push	{r4, lr}
	.cfi_def_cfa_offset 8
	.cfi_offset 4, -8
	.cfi_offset 14, -4
.LBB2088:
.LBB2089:
	.file 17 "/usr/include/c++/4.9/iostream"
	.loc 17 74 0
	movw	r4, #:lower16:.LANCHOR0
	movt	r4, #:upper16:.LANCHOR0
	mov	r0, r4
	bl	_ZNSt8ios_base4InitC1Ev
.LVL219:
	movw	r1, #:lower16:_ZNSt8ios_base4InitD1Ev
	movw	r2, #:lower16:__dso_handle
	mov	r0, r4
	movt	r1, #:upper16:_ZNSt8ios_base4InitD1Ev
	movt	r2, #:upper16:__dso_handle
.LBE2089:
.LBE2088:
	.loc 8 230 0
	pop	{r4, lr}
	.cfi_restore 14
	.cfi_restore 4
	.cfi_def_cfa_offset 0
.LBB2091:
.LBB2090:
	.loc 17 74 0
	b	__aeabi_atexit
.LVL220:
.LBE2090:
.LBE2091:
	.cfi_endproc
.LFE8169:
	.cantunwind
	.fnend
	.size	_GLOBAL__sub_I__ZN6ClientC2EPcS0_ii, .-_GLOBAL__sub_I__ZN6ClientC2EPcS0_ii
	.section	.init_array,"aw",%init_array
	.align	2
	.word	_GLOBAL__sub_I__ZN6ClientC2EPcS0_ii(target1)
	.text
	.align	2
	.global	_ZN6Client12CaptureAudioEv
	.thumb
	.thumb_func
	.type	_ZN6Client12CaptureAudioEv, %function
_ZN6Client12CaptureAudioEv:
	.fnstart
.LFB6970:
	.loc 8 54 0
	.cfi_startproc
	.cfi_personality 0,__gxx_personality_v0
	.cfi_lsda 0,.LLSDA6970
	@ args = 0, pretend = 0, frame = 64
	@ frame_needed = 0, uses_anonymous_args = 0
.LVL221:
	push	{r4, r5, r6, r7, lr}
	.save {r4, r5, r6, r7, lr}
	.cfi_def_cfa_offset 20
	.cfi_offset 4, -20
	.cfi_offset 5, -16
	.cfi_offset 6, -12
	.cfi_offset 7, -8
	.cfi_offset 14, -4
.LBB2361:
	.loc 8 60 0
	movs	r1, #1
.LBE2361:
	.loc 8 54 0
	mov	r4, r0
	.pad #76
	sub	sp, sp, #76
	.cfi_def_cfa_offset 96
.LBB2652:
	.loc 8 60 0
	movs	r0, #2
.LVL222:
	movs	r2, #0
	.loc 8 59 0
	ldr	r7, [r4, #12]
.LVL223:
	.loc 8 60 0
	bl	socket
.LVL224:
	.loc 8 61 0
	subs	r6, r0, #0
	blt	.L229
	.loc 8 65 0
	ldr	r0, [r4, #8]
.LVL225:
.LEHB4:
	bl	gethostbyname
.LVL226:
	.loc 8 66 0
	mov	r5, r0
	cmp	r0, #0
	beq	.L230
.LVL227:
.L165:
	.loc 8 72 0
	movs	r1, #16
	add	r0, sp, #24
	bl	bzero
.LVL228:
	.loc 8 76 0
	ldr	r3, [r5, #16]
	ldr	r2, [r5, #12]
	add	r1, sp, #28
	.loc 8 73 0
	movs	r0, #2
	strh	r0, [sp, #24]	@ movhi
	.loc 8 76 0
	ldr	r0, [r3]
	bl	bcopy
.LVL229:
.LBB2362:
	.loc 8 77 0
	ubfx	r3, r7, #8, #8
.LBE2362:
	.loc 8 79 0
	add	r1, sp, #24
	mov	r0, r6
	movs	r2, #16
.LBB2363:
	.loc 8 77 0
	orr	r3, r3, r7, lsl #8
	strh	r3, [sp, #26]	@ movhi
.LBE2363:
	.loc 8 79 0
	bl	connect
.LVL230:
	cmp	r0, #0
	blt	.L231
.L166:
	.loc 8 87 0
	ldr	r1, [r4, #4]
	movs	r3, #1
	movw	r2, #48000
	str	r3, [sp]
	add	r0, sp, #40
	movs	r3, #2
	bl	_ZN14AudioInterfaceC1EPcji15_snd_pcm_stream
.LEHE4:
.LVL231:
	.loc 8 88 0
	add	r0, sp, #40
.LEHB5:
	bl	_ZN14AudioInterface4openEv
.LVL232:
	.loc 8 89 0
	add	r0, sp, #40
	bl	_ZN14AudioInterface21getRequiredBufferSizeEv
.LVL233:
	str	r0, [r4, #40]
	.loc 8 90 0
	bl	malloc
.LVL234:
	.loc 8 92 0
	add	r1, sp, #24
	movs	r2, #16
	.loc 8 90 0
	str	r0, [r4, #36]
	.loc 8 92 0
	mov	r0, r6
	bl	connect
.LVL235:
	.loc 8 92 0 is_stmt 0 discriminator 1
	cmp	r0, #0
	blt	.L232
.L167:
	.loc 8 101 0 is_stmt 1
	movs	r0, #24
	bl	_Znwj
.LVL236:
.LBB2364:
.LBB2365:
	.loc 5 136 0
	movw	r1, #:lower16:pthread_create
.LBE2365:
.LBE2364:
	movs	r2, #0
.LBB2568:
.LBB2562:
	movt	r1, #:upper16:pthread_create
.LBE2562:
.LBE2568:
	str	r2, [r0]
	str	r2, [r0, #4]
	str	r2, [r0, #8]
	str	r2, [r0, #12]
	str	r2, [r0, #16]
	str	r2, [r0, #20]
.LVL237:
.LBB2569:
.LBB2563:
.LBB2366:
.LBB2367:
	.loc 5 73 0
	str	r2, [sp, #12]
.LBE2367:
.LBE2366:
.LBE2563:
.LBE2569:
	.loc 8 101 0
	str	r0, [r4, #32]
.LVL238:
.LBB2570:
.LBB2564:
	.loc 5 136 0
.LVL239:
.LBB2368:
.LBB2369:
.LBB2370:
.LBB2371:
.LBB2372:
.LBB2373:
.LBB2374:
.LBB2375:
.LBB2376:
.LBB2377:
.LBB2378:
	.loc 3 104 0
	movs	r0, #36
.LVL240:
	bl	_Znwj
.LEHE5:
.LVL241:
.LBE2378:
.LBE2377:
.LBE2376:
.LBB2381:
.LBB2382:
.LBB2383:
.LBB2384:
.LBB2385:
	.loc 2 511 0 discriminator 1
	ldr	r1, .L237
.LBE2385:
.LBE2384:
.LBE2383:
.LBE2382:
.LBE2381:
.LBB2463:
.LBB2380:
.LBB2379:
	.loc 3 104 0 discriminator 1
	mov	r5, r0
.LVL242:
.LBE2379:
.LBE2380:
.LBE2463:
.LBB2464:
.LBB2459:
.LBB2455:
.LBB2451:
.LBB2447:
.LBB2386:
.LBB2387:
.LBB2388:
.LBB2389:
.LBB2390:
	.loc 5 111 0 discriminator 1
	ldr	r2, .L237+4
.LBE2390:
.LBE2389:
.LBE2388:
.LBE2387:
.LBE2386:
.LBE2447:
.LBE2451:
.LBE2455:
.LBE2459:
.LBE2464:
.LBE2375:
.LBE2374:
.LBB2471:
.LBB2472:
.LBB2473:
.LBB2474:
	.loc 2 543 0 discriminator 1
	movw	r0, #:lower16:_ZTISt19_Sp_make_shared_tag
.LBE2474:
.LBE2473:
.LBE2472:
.LBE2471:
.LBB2488:
.LBB2468:
.LBB2465:
.LBB2460:
.LBB2456:
.LBB2452:
.LBB2448:
.LBB2438:
.LBB2433:
.LBB2428:
.LBB2423:
.LBB2418:
.LBB2391:
.LBB2392:
.LBB2393:
.LBB2394:
.LBB2395:
	.loc 16 142 0 discriminator 1
	movw	r3, #:lower16:_ZN6Client9CalculateEv
.LBE2395:
.LBE2394:
.LBE2393:
.LBE2392:
.LBE2391:
.LBE2418:
.LBE2423:
.LBE2428:
.LBE2433:
.LBE2438:
.LBE2448:
.LBE2452:
.LBE2456:
.LBE2460:
.LBE2465:
.LBE2468:
.LBE2488:
.LBB2489:
.LBB2485:
.LBB2482:
.LBB2479:
	.loc 2 543 0 discriminator 1
	movt	r0, #:upper16:_ZTISt19_Sp_make_shared_tag
.LBE2479:
.LBE2482:
.LBE2485:
.LBE2489:
.LBB2490:
.LBB2469:
.LBB2466:
.LBB2461:
.LBB2457:
.LBB2453:
.LBB2449:
.LBB2439:
.LBB2434:
.LBB2429:
.LBB2424:
.LBB2419:
.LBB2411:
.LBB2408:
.LBB2405:
.LBB2399:
.LBB2396:
	.loc 16 142 0 discriminator 1
	movt	r3, #:upper16:_ZN6Client9CalculateEv
.LBE2396:
.LBE2399:
.LBE2405:
.LBE2408:
.LBE2411:
.LBE2419:
.LBE2424:
.LBE2429:
.LBE2434:
.LBE2439:
	.loc 2 511 0 discriminator 1
	str	r1, [r5]
.LBB2440:
.LBB2435:
.LBB2430:
.LBB2425:
.LBB2420:
	.loc 5 111 0 discriminator 1
	str	r2, [r5, #12]
.LBE2420:
.LBE2425:
.LBE2430:
.LBE2435:
.LBE2440:
.LBE2449:
.LBE2453:
.LBE2457:
.LBE2461:
.LBE2466:
.LBE2469:
.LBE2490:
.LBB2491:
.LBB2486:
.LBB2483:
.LBB2480:
	.loc 2 543 0 discriminator 1
	mov	r1, r0
.LBE2480:
.LBE2483:
.LBE2486:
.LBE2491:
.LBB2492:
.LBB2470:
.LBB2467:
.LBB2462:
.LBB2458:
.LBB2454:
.LBB2450:
.LBB2441:
.LBB2442:
	.loc 2 112 0 discriminator 1
	movs	r2, #1
.LBE2442:
.LBE2441:
.LBB2444:
.LBB2436:
.LBB2431:
.LBB2426:
.LBB2421:
.LBB2412:
.LBB2409:
.LBB2406:
.LBB2400:
.LBB2397:
	.loc 16 142 0 discriminator 1
	str	r3, [r5, #28]
.LBE2397:
.LBE2400:
.LBB2401:
.LBB2402:
.LBB2403:
	str	r4, [r5, #24]
.LBE2403:
.LBE2402:
.LBE2401:
.LBE2406:
.LBE2409:
.LBE2412:
.LBB2413:
.LBB2414:
	.loc 5 97 0 discriminator 1
	movs	r3, #0
.LBE2414:
.LBE2413:
.LBE2421:
.LBE2426:
.LBE2431:
.LBE2436:
.LBE2444:
.LBB2445:
.LBB2443:
	.loc 2 112 0 discriminator 1
	str	r2, [r5, #4]
	str	r2, [r5, #8]
.LVL243:
.LBE2443:
.LBE2445:
.LBB2446:
.LBB2437:
.LBB2432:
.LBB2427:
.LBB2422:
.LBB2416:
.LBB2415:
	.loc 5 97 0 discriminator 1
	str	r3, [r5, #16]
	str	r3, [r5, #20]
.LVL244:
.LBE2415:
.LBE2416:
.LBB2417:
.LBB2410:
.LBB2407:
.LBB2404:
.LBB2398:
	.loc 16 142 0 discriminator 1
	str	r3, [r5, #32]
.LVL245:
.LBE2398:
.LBE2404:
.LBE2407:
.LBE2410:
.LBE2417:
.LBE2422:
.LBE2427:
.LBE2432:
.LBE2437:
.LBE2446:
.LBE2450:
.LBE2454:
.LBE2458:
.LBE2462:
.LBE2467:
.LBE2470:
.LBE2492:
.LBB2493:
.LBB2487:
.LBB2484:
.LBB2481:
	.loc 2 543 0 discriminator 1
	bl	_ZNKSt9type_infoeqERKS_
.LVL246:
	cbz	r0, .L173
.LVL247:
.LBB2475:
.LBB2476:
.LBB2477:
.LBB2478:
	.loc 4 53 0
	add	r0, r5, #12
.LVL248:
.L173:
.LBE2478:
.LBE2477:
.LBE2476:
.LBE2475:
.LBE2481:
.LBE2484:
.LBE2487:
.LBE2493:
.LBE2373:
.LBE2372:
.LBE2371:
.LBE2370:
.LBE2369:
.LBE2368:
.LBB2494:
.LBB2495:
.LBB2496:
	.loc 2 932 0
	str	r0, [sp, #16]
.LVL249:
.LBE2496:
.LBE2495:
.LBE2494:
	.loc 5 138 0
	add	r1, sp, #16
.LVL250:
	add	r0, sp, #12
.LVL251:
.LBB2501:
.LBB2500:
.LBB2499:
.LBB2497:
.LBB2498:
	.loc 2 696 0
	str	r5, [sp, #20]
.LEHB6:
.LBE2498:
.LBE2497:
.LBE2499:
.LBE2500:
.LBE2501:
	.loc 5 138 0
	bl	_ZNSt6thread15_M_start_threadESt10shared_ptrINS_10_Impl_baseEE
.LEHE6:
.LVL252:
.LBB2502:
.LBB2503:
.LBB2504:
.LBB2505:
.LBB2506:
	.loc 2 665 0
	ldr	r5, [sp, #20]
.LVL253:
	cbz	r5, .L181
.LVL254:
.LBB2507:
.LBB2508:
.LBB2509:
.LBB2510:
	.loc 7 81 0
	movw	r7, #:lower16:_ZL28__gthrw___pthread_key_createPjPFvPvE
.LVL255:
	movt	r7, #:upper16:_ZL28__gthrw___pthread_key_createPjPFvPvE
	cmp	r7, #0
	beq	.L175
.LVL256:
.LBB2511:
.LBB2512:
.LBB2513:
	.loc 7 49 0
	adds	r2, r5, #4
.LVL257:
	dmb	sy
.L225:
	ldrex	r3, [r2]
	subs	r1, r3, #1
	strex	r0, r1, [r2]
	cmp	r0, #0
	bne	.L225
.LBE2513:
.LBE2512:
.LBE2511:
.LBE2510:
.LBE2509:
	.loc 2 146 0
	cmp	r3, #1
.LBB2524:
.LBB2521:
.LBB2516:
.LBB2515:
.LBB2514:
	.loc 7 49 0
	dmb	sy
.LBE2514:
.LBE2515:
.LBE2516:
.LBE2521:
.LBE2524:
	.loc 2 146 0
	beq	.L233
.LVL258:
.L181:
.LBE2508:
.LBE2507:
.LBE2506:
.LBE2505:
.LBE2504:
.LBE2503:
.LBE2502:
.LBE2564:
.LBE2570:
	.loc 8 103 0
	movs	r2, #2
	add	r1, sp, #12
.LVL259:
	mov	r3, r2
	mov	r0, r4
.LEHB7:
	bl	_ZN6Client13SetSchedulingERSt6threadii
.LVL260:
.LBB2571:
.LBB2572:
.LBB2573:
.LBB2574:
	.loc 11 747 0
	movw	r5, #:lower16:_ZL28__gthrw___pthread_key_createPjPFvPvE
	movt	r5, #:upper16:_ZL28__gthrw___pthread_key_createPjPFvPvE
.L188:
.LBE2574:
.LBE2573:
.LBE2572:
.LBE2571:
	.loc 8 104 0
	ldrb	r3, [r4, #1]	@ zero_extendqisi2
	cbz	r3, .L221
	ldrb	r3, [r4]	@ zero_extendqisi2
.L185:
	.loc 8 105 0
	cmp	r3, #0
	bne	.L185
	.loc 8 107 0
	ldr	r0, [r4, #32]
.LVL261:
.LBB2579:
.LBB2577:
.LBB2576:
.LBB2575:
	.loc 11 747 0
	cbz	r5, .L186
	.loc 11 748 0
	bl	_ZL26__gthrw_pthread_mutex_lockP15pthread_mutex_t
.LVL262:
.LBE2575:
.LBE2576:
	.loc 12 138 0
	cmp	r0, #0
	bne	.L234
.L186:
.LBE2577:
.LBE2579:
	.loc 8 108 0
	movs	r1, #0
	ldr	r0, [r4, #36]
	ldr	r2, [r4, #40]
	bl	memset
.LVL263:
	.loc 8 111 0
	add	r0, sp, #40
	ldr	r1, [r4, #36]
	bl	_ZN14AudioInterface4readEPc
.LVL264:
	.loc 8 112 0
	mov	r0, r6
	ldr	r1, [r4, #36]
	ldr	r2, [r4, #40]
	bl	write
.LVL265:
	mov	r7, r0
.LVL266:
	.loc 8 113 0
	ldr	r0, [r4, #32]
.LVL267:
.LBB2580:
.LBB2581:
.LBB2582:
.LBB2583:
	.loc 11 777 0
	cbz	r5, .L187
	.loc 11 778 0
	bl	_ZL28__gthrw_pthread_mutex_unlockP15pthread_mutex_t
.LVL268:
.L187:
.LBE2583:
.LBE2582:
.LBE2581:
.LBE2580:
	.loc 8 114 0 discriminator 1
	cmp	r7, #0
	bge	.L188
.LVL269:
.LBB2584:
.LBB2585:
	.loc 9 535 0
	movw	r0, #:lower16:_ZSt4cout
	movw	r1, #:lower16:.LC5
	movt	r0, #:upper16:_ZSt4cout
	movt	r1, #:upper16:.LC5
	movs	r2, #24
	bl	_ZSt16__ostream_insertIcSt11char_traitsIcEERSt13basic_ostreamIT_T0_ES6_PKS3_i
.LVL270:
	b	.L188
.LVL271:
.L221:
.LBE2585:
.LBE2584:
	.loc 8 123 0
	add	r0, sp, #40
	bl	_ZN14AudioInterface5closeEv
.LVL272:
	.loc 8 124 0
	cmp	r6, #0
	blt	.L192
	.loc 8 125 0
	mov	r0, r6
	bl	close
.LEHE7:
.LVL273:
.L192:
.LBB2586:
.LBB2587:
	.loc 5 145 0
	ldr	r3, [sp, #12]
	cmp	r3, #0
	bne	.L190
.LBE2587:
.LBE2586:
	.loc 8 125 0
	add	r0, sp, #40
	bl	_ZN14AudioInterfaceD1Ev
.LVL274:
.LBE2652:
	.loc 8 127 0
	add	sp, sp, #76
	.cfi_remember_state
	.cfi_def_cfa_offset 20
	@ sp needed
	pop	{r4, r5, r6, r7, pc}
.LVL275:
.L175:
	.cfi_restore_state
.LBB2653:
.LBB2589:
.LBB2565:
.LBB2555:
.LBB2553:
.LBB2551:
.LBB2549:
.LBB2547:
.LBB2545:
.LBB2543:
.LBB2525:
.LBB2522:
.LBB2517:
.LBB2518:
	.loc 7 67 0
	ldr	r3, [r5, #4]
.LVL276:
.LBE2518:
.LBE2517:
.LBE2522:
.LBE2525:
	.loc 2 146 0
	cmp	r3, #1
.LBB2526:
.LBB2523:
.LBB2520:
.LBB2519:
	.loc 7 68 0
	add	r2, r3, #-1
	str	r2, [r5, #4]
.LBE2519:
.LBE2520:
.LBE2523:
.LBE2526:
	.loc 2 146 0
	bne	.L181
.LVL277:
.L233:
	.loc 2 149 0
	ldr	r2, [r5]
	movw	r3, #:lower16:_ZNSt23_Sp_counted_ptr_inplaceINSt6thread5_ImplISt12_Bind_simpleIFSt7_Mem_fnIM6ClientFvvEEPS4_EEEESaISB_ELN9__gnu_cxx12_Lock_policyE2EE10_M_disposeEv
	movt	r3, #:upper16:_ZNSt23_Sp_counted_ptr_inplaceINSt6thread5_ImplISt12_Bind_simpleIFSt7_Mem_fnIM6ClientFvvEEPS4_EEEESaISB_ELN9__gnu_cxx12_Lock_policyE2EE10_M_disposeEv
	ldr	r2, [r2, #8]
	cmp	r2, r3
	bne	.L177
.LVL278:
.LBB2527:
.LBB2528:
.LBB2529:
.LBB2530:
.LBB2531:
	.loc 3 124 0
	ldr	r3, [r5, #12]
	add	r0, r5, #12
.LVL279:
	ldr	r3, [r3]
	blx	r3
.LVL280:
.L178:
.LBE2531:
.LBE2530:
.LBE2529:
.LBE2528:
.LBE2527:
.LBB2532:
.LBB2533:
	.loc 7 81 0
	cmp	r7, #0
	beq	.L179
.LVL281:
.LBB2534:
.LBB2535:
.LBB2536:
	.loc 7 49 0
	add	r3, r5, #8
.LVL282:
	dmb	sy
.L224:
	ldrex	r2, [r3]
	subs	r1, r2, #1
	strex	r0, r1, [r3]
	cmp	r0, #0
	bne	.L224
	dmb	sy
.LVL283:
.L180:
.LBE2536:
.LBE2535:
.LBE2534:
.LBE2533:
.LBE2532:
	.loc 2 162 0
	cmp	r2, #1
	bne	.L181
.LVL284:
.LBB2540:
.LBB2541:
	.loc 2 166 0
	ldr	r3, [r5]
	mov	r0, r5
	ldr	r3, [r3, #12]
	blx	r3
.LVL285:
	b	.L181
.LVL286:
.L232:
.LBE2541:
.LBE2540:
.LBE2543:
.LBE2545:
.LBE2547:
.LBE2549:
.LBE2551:
.LBE2553:
.LBE2555:
.LBE2565:
.LBE2589:
.LBB2590:
.LBB2591:
	.loc 9 535 0
	movw	r0, #:lower16:_ZSt4cout
	movw	r1, #:lower16:.LC4
	movt	r0, #:upper16:_ZSt4cout
	movt	r1, #:upper16:.LC4
	movs	r2, #16
.LEHB8:
	bl	_ZSt16__ostream_insertIcSt11char_traitsIcEERSt13basic_ostreamIT_T0_ES6_PKS3_i
.LVL287:
.LBE2591:
.LBE2590:
.LBB2592:
.LBB2593:
.LBB2594:
	.loc 9 565 0
	movw	r3, #:lower16:_ZSt4cout
	movt	r3, #:upper16:_ZSt4cout
	ldr	r2, [r3]
	ldr	r2, [r2, #-12]
	add	r3, r3, r2
	ldr	r5, [r3, #124]
.LVL288:
.LBB2595:
.LBB2596:
.LBB2597:
	.loc 10 48 0
	cmp	r5, #0
	beq	.L235
.LVL289:
.LBE2597:
.LBE2596:
.LBB2599:
.LBB2600:
	.loc 1 867 0
	ldrb	r3, [r5, #28]	@ zero_extendqisi2
	cbz	r3, .L169
	.loc 1 868 0
	ldrb	r1, [r5, #39]	@ zero_extendqisi2
.LVL290:
.L170:
.LBE2600:
.LBE2599:
.LBE2595:
	.loc 9 565 0
	movw	r0, #:lower16:_ZSt4cout
	movt	r0, #:upper16:_ZSt4cout
	bl	_ZNSo3putEc
.LVL291:
.LBB2606:
.LBB2607:
	.loc 9 587 0
	bl	_ZNSo5flushEv
.LVL292:
.LBE2607:
.LBE2606:
.LBE2594:
.LBE2593:
.LBE2592:
	.loc 8 94 0
	add	r0, sp, #40
	bl	_ZN14AudioInterface5closeEv
.LVL293:
	.loc 8 95 0
	cmp	r6, #0
	blt	.L172
	.loc 8 96 0
	mov	r0, r6
	bl	close
.LVL294:
.L172:
	.loc 8 97 0
	movs	r3, #0
	strb	r3, [r4, #1]
	b	.L167
.LVL295:
.L169:
.LBB2614:
.LBB2612:
.LBB2610:
.LBB2608:
.LBB2604:
.LBB2603:
.LBB2601:
.LBB2602:
	.loc 1 869 0
	mov	r0, r5
	bl	_ZNKSt5ctypeIcE13_M_widen_initEv
.LVL296:
	.loc 1 870 0
	ldr	r2, [r5]
	movw	r3, #:lower16:_ZNKSt5ctypeIcE8do_widenEc
	movt	r3, #:upper16:_ZNKSt5ctypeIcE8do_widenEc
	ldr	r2, [r2, #24]
	cmp	r2, r3
	it	eq
	moveq	r1, #10
	beq	.L170
	mov	r0, r5
	movs	r1, #10
	blx	r2
.LEHE8:
.LVL297:
	mov	r1, r0
	b	.L170
.LVL298:
.L231:
.LBE2602:
.LBE2601:
.LBE2603:
.LBE2604:
.LBE2608:
.LBE2610:
.LBE2612:
.LBE2614:
	.loc 8 81 0
	movw	r0, #:lower16:.LC3
	movt	r0, #:upper16:.LC3
.LEHB9:
	bl	puts
.LVL299:
	.loc 8 82 0
	movs	r3, #0
	strb	r3, [r4, #1]
	b	.L166
.LVL300:
.L229:
.LBB2615:
.LBB2616:
	.loc 9 535 0
	movw	r5, #:lower16:_ZSt4cout
	movw	r1, #:lower16:.LC2
	movt	r5, #:upper16:_ZSt4cout
	movt	r1, #:upper16:.LC2
	mov	r0, r5
.LVL301:
	movs	r2, #20
	bl	_ZSt16__ostream_insertIcSt11char_traitsIcEERSt13basic_ostreamIT_T0_ES6_PKS3_i
.LVL302:
.LBE2616:
.LBE2615:
.LBB2617:
.LBB2618:
.LBB2619:
	.loc 9 565 0
	ldr	r3, [r5]
	ldr	r3, [r3, #-12]
	add	r5, r5, r3
	ldr	r5, [r5, #124]
.LVL303:
.LBB2620:
.LBB2621:
.LBB2622:
	.loc 10 48 0
	cmp	r5, #0
	beq	.L236
.LVL304:
.LBE2622:
.LBE2621:
.LBB2624:
.LBB2625:
	.loc 1 867 0
	ldrb	r3, [r5, #28]	@ zero_extendqisi2
	cbz	r3, .L162
	.loc 1 868 0
	ldrb	r1, [r5, #39]	@ zero_extendqisi2
.LVL305:
.L163:
.LBE2625:
.LBE2624:
.LBE2620:
	.loc 9 565 0
	movw	r0, #:lower16:_ZSt4cout
	movt	r0, #:upper16:_ZSt4cout
	bl	_ZNSo3putEc
.LVL306:
.LBB2631:
.LBB2632:
	.loc 9 587 0
	bl	_ZNSo5flushEv
.LVL307:
.LBE2632:
.LBE2631:
.LBE2619:
.LBE2618:
.LBE2617:
	.loc 8 63 0
	movs	r3, #0
	.loc 8 65 0
	ldr	r0, [r4, #8]
	.loc 8 63 0
	strb	r3, [r4, #1]
	.loc 8 65 0
	bl	gethostbyname
.LVL308:
	.loc 8 66 0
	mov	r5, r0
.LVL309:
	cmp	r0, #0
	bne	.L165
.LVL310:
.LBB2639:
.LBB2640:
	.loc 9 535 0
	movw	r0, #:lower16:_ZSt4cout
.LVL311:
	movw	r1, #:lower16:.LC6
	movt	r0, #:upper16:_ZSt4cout
	movt	r1, #:upper16:.LC6
	movs	r2, #20
	bl	_ZSt16__ostream_insertIcSt11char_traitsIcEERSt13basic_ostreamIT_T0_ES6_PKS3_i
.LVL312:
.L194:
.LBE2640:
.LBE2639:
	.loc 8 70 0
	movs	r5, #0
.LVL313:
	strb	r5, [r4, #1]
	b	.L165
.LVL314:
.L162:
.LBB2642:
.LBB2637:
.LBB2635:
.LBB2633:
.LBB2629:
.LBB2628:
.LBB2626:
.LBB2627:
	.loc 1 869 0
	mov	r0, r5
	bl	_ZNKSt5ctypeIcE13_M_widen_initEv
.LVL315:
	.loc 1 870 0
	ldr	r2, [r5]
	movw	r3, #:lower16:_ZNKSt5ctypeIcE8do_widenEc
	movt	r3, #:upper16:_ZNKSt5ctypeIcE8do_widenEc
	ldr	r2, [r2, #24]
	cmp	r2, r3
	it	eq
	moveq	r1, #10
	beq	.L163
	movs	r1, #10
	mov	r0, r5
	blx	r2
.LVL316:
	mov	r1, r0
	b	.L163
.LVL317:
.L179:
.LBE2627:
.LBE2626:
.LBE2628:
.LBE2629:
.LBE2633:
.LBE2635:
.LBE2637:
.LBE2642:
.LBB2643:
.LBB2566:
.LBB2556:
.LBB2554:
.LBB2552:
.LBB2550:
.LBB2548:
.LBB2546:
.LBB2544:
.LBB2542:
.LBB2539:
.LBB2537:
.LBB2538:
	.loc 7 67 0
	ldr	r2, [r5, #8]
.LVL318:
	.loc 7 68 0
	subs	r3, r2, #1
	str	r3, [r5, #8]
	b	.L180
.LVL319:
.L177:
.LBE2538:
.LBE2537:
.LBE2539:
.LBE2542:
	.loc 2 149 0
	mov	r0, r5
	blx	r2
.LVL320:
	b	.L178
.LVL321:
.L201:
.LBE2544:
.LBE2546:
.LBE2548:
.LBE2550:
.LBE2552:
.LBE2554:
.LBE2556:
.LBE2566:
.LBE2643:
.LBB2644:
.LBB2645:
	.loc 5 145 0
	ldr	r3, [sp, #12]
	cbnz	r3, .L190
.LVL322:
.L184:
.LBE2645:
.LBE2644:
	.loc 8 125 0
	add	r0, sp, #40
	bl	_ZN14AudioInterfaceD1Ev
.LVL323:
	bl	__cxa_end_cleanup
.LEHE9:
.LVL324:
.L235:
.LEHB10:
.LBB2646:
.LBB2613:
.LBB2611:
.LBB2609:
.LBB2605:
.LBB2598:
	.loc 10 49 0
	bl	_ZSt16__throw_bad_castv
.LEHE10:
.LVL325:
.L230:
.LBE2598:
.LBE2605:
.LBE2609:
.LBE2611:
.LBE2613:
.LBE2646:
.LBB2647:
.LBB2641:
	.loc 9 535 0
	movw	r0, #:lower16:_ZSt4cout
.LVL326:
	movw	r1, #:lower16:.LC6
	movt	r1, #:upper16:.LC6
	movs	r2, #20
	movt	r0, #:upper16:_ZSt4cout
.LEHB11:
	bl	_ZSt16__ostream_insertIcSt11char_traitsIcEERSt13basic_ostreamIT_T0_ES6_PKS3_i
.LVL327:
.LBE2641:
.LBE2647:
	.loc 8 69 0
	mov	r0, r6
	bl	close
.LVL328:
	b	.L194
.LVL329:
.L236:
.LBB2648:
.LBB2638:
.LBB2636:
.LBB2634:
.LBB2630:
.LBB2623:
	.loc 10 49 0
	bl	_ZSt16__throw_bad_castv
.LEHE11:
.LVL330:
.L190:
.LBE2623:
.LBE2630:
.LBE2634:
.LBE2636:
.LBE2638:
.LBE2648:
.LBB2649:
.LBB2588:
	.loc 5 146 0
	bl	_ZSt9terminatev
.LVL331:
.L234:
.LEHB12:
.LBE2588:
.LBE2649:
.LBB2650:
.LBB2578:
	.loc 12 139 0
	bl	_ZSt20__throw_system_errori
.LEHE12:
.LVL332:
.L200:
	b	.L184
.LVL333:
.L202:
.LBE2578:
.LBE2650:
.LBB2651:
.LBB2567:
.LBB2557:
.LBB2558:
.LBB2559:
.LBB2560:
.LBB2561:
	.loc 2 665 0
	ldr	r0, [sp, #20]
	cmp	r0, #0
	beq	.L184
	.loc 2 666 0
	bl	_ZNSt16_Sp_counted_baseILN9__gnu_cxx12_Lock_policyE2EE10_M_releaseEv
.LVL334:
	b	.L184
.L238:
	.align	2
.L237:
	.word	_ZTVSt23_Sp_counted_ptr_inplaceINSt6thread5_ImplISt12_Bind_simpleIFSt7_Mem_fnIM6ClientFvvEEPS4_EEEESaISB_ELN9__gnu_cxx12_Lock_policyE2EE+8
	.word	_ZTVNSt6thread5_ImplISt12_Bind_simpleIFSt7_Mem_fnIM6ClientFvvEEPS3_EEEE+8
.LBE2561:
.LBE2560:
.LBE2559:
.LBE2558:
.LBE2557:
.LBE2567:
.LBE2651:
.LBE2653:
	.cfi_endproc
.LFE6970:
	.personality	__gxx_personality_v0
	.handlerdata
.LLSDA6970:
	.byte	0xff
	.byte	0xff
	.byte	0x1
	.uleb128 .LLSDACSE6970-.LLSDACSB6970
.LLSDACSB6970:
	.uleb128 .LEHB4-.LFB6970
	.uleb128 .LEHE4-.LEHB4
	.uleb128 0
	.uleb128 0
	.uleb128 .LEHB5-.LFB6970
	.uleb128 .LEHE5-.LEHB5
	.uleb128 .L200-.LFB6970
	.uleb128 0
	.uleb128 .LEHB6-.LFB6970
	.uleb128 .LEHE6-.LEHB6
	.uleb128 .L202-.LFB6970
	.uleb128 0
	.uleb128 .LEHB7-.LFB6970
	.uleb128 .LEHE7-.LEHB7
	.uleb128 .L201-.LFB6970
	.uleb128 0
	.uleb128 .LEHB8-.LFB6970
	.uleb128 .LEHE8-.LEHB8
	.uleb128 .L200-.LFB6970
	.uleb128 0
	.uleb128 .LEHB9-.LFB6970
	.uleb128 .LEHE9-.LEHB9
	.uleb128 0
	.uleb128 0
	.uleb128 .LEHB10-.LFB6970
	.uleb128 .LEHE10-.LEHB10
	.uleb128 .L200-.LFB6970
	.uleb128 0
	.uleb128 .LEHB11-.LFB6970
	.uleb128 .LEHE11-.LEHB11
	.uleb128 0
	.uleb128 0
	.uleb128 .LEHB12-.LFB6970
	.uleb128 .LEHE12-.LEHB12
	.uleb128 .L201-.LFB6970
	.uleb128 0
.LLSDACSE6970:
	.text
	.fnend
	.size	_ZN6Client12CaptureAudioEv, .-_ZN6Client12CaptureAudioEv
	.align	2
	.global	_ZN6Client12CaptureVideoEv
	.thumb
	.thumb_func
	.type	_ZN6Client12CaptureVideoEv, %function
_ZN6Client12CaptureVideoEv:
	.fnstart
.LFB6978:
	.loc 8 159 0
	.cfi_startproc
	.cfi_personality 0,__gxx_personality_v0
	.cfi_lsda 0,.LLSDA6978
	@ args = 0, pretend = 0, frame = 152
	@ frame_needed = 0, uses_anonymous_args = 0
.LVL335:
	push	{r4, r5, r6, r7, r8, r9, r10, fp, lr}
	.save {r4, r5, r6, r7, r8, r9, r10, fp, lr}
	.cfi_def_cfa_offset 36
	.cfi_offset 4, -36
	.cfi_offset 5, -32
	.cfi_offset 6, -28
	.cfi_offset 7, -24
	.cfi_offset 8, -20
	.cfi_offset 9, -16
	.cfi_offset 10, -12
	.cfi_offset 11, -8
	.cfi_offset 14, -4
.LBB2876:
	.loc 8 166 0
	movs	r1, #1
.LBE2876:
	.loc 8 159 0
	mov	r6, r0
	.pad #156
	sub	sp, sp, #156
	.cfi_def_cfa_offset 192
.LBB3214:
	.loc 8 166 0
	movs	r0, #2
.LVL336:
	movs	r2, #0
	.loc 8 165 0
	ldr	r7, [r6, #16]
.LVL337:
	.loc 8 166 0
	bl	socket
.LVL338:
	.loc 8 167 0
	subs	r10, r0, #0
	blt	.L337
	.loc 8 171 0
	ldr	r0, [r6, #8]
.LVL339:
.LEHB13:
	bl	gethostbyname
.LVL340:
	.loc 8 172 0
	mov	r5, r0
	cmp	r0, #0
	beq	.L297
	movw	r4, #:lower16:_ZSt4cout
	movt	r4, #:upper16:_ZSt4cout
.LVL341:
.L245:
	.loc 8 178 0
	movs	r1, #16
	add	r0, sp, #24
	bl	bzero
.LVL342:
	.loc 8 182 0
	ldr	r3, [r5, #16]
	ldr	r2, [r5, #12]
	add	r1, sp, #28
	.loc 8 179 0
	movs	r0, #2
	strh	r0, [sp, #24]	@ movhi
	.loc 8 182 0
	ldr	r0, [r3]
	bl	bcopy
.LVL343:
	.loc 8 186 0
	add	r1, sp, #24
.LBB2877:
	.loc 8 183 0
	ubfx	r3, r7, #8, #8
.LBE2877:
	.loc 8 186 0
	mov	r0, r10
	movs	r2, #16
.LBB2878:
	.loc 8 183 0
	orr	r3, r3, r7, lsl #8
	strh	r3, [sp, #26]	@ movhi
.LBE2878:
	.loc 8 186 0
	bl	connect
.LVL344:
	cmp	r0, #0
	blt	.L338
.L246:
.LVL345:
.LBB2879:
.LBB2880:
	.loc 9 535 0
	movw	r0, #:lower16:_ZSt4cout
	movw	r1, #:lower16:.LC7
	movt	r0, #:upper16:_ZSt4cout
	movt	r1, #:upper16:.LC7
	movs	r2, #21
	bl	_ZSt16__ostream_insertIcSt11char_traitsIcEERSt13basic_ostreamIT_T0_ES6_PKS3_i
.LVL346:
.LBE2880:
.LBE2879:
.LBB2881:
.LBB2882:
.LBB2883:
	.loc 9 565 0
	ldr	r3, [r4]
	ldr	r3, [r3, #-12]
	add	r3, r3, r4
	ldr	r5, [r3, #124]
.LVL347:
.LBB2884:
.LBB2885:
.LBB2886:
	.loc 10 48 0
	cmp	r5, #0
	beq	.L247
.LVL348:
.LBE2886:
.LBE2885:
.LBB2887:
.LBB2888:
	.loc 1 867 0
	ldrb	r3, [r5, #28]	@ zero_extendqisi2
	cmp	r3, #0
	beq	.L248
	.loc 1 868 0
	ldrb	r1, [r5, #39]	@ zero_extendqisi2
.LVL349:
.L249:
.LBE2888:
.LBE2887:
.LBE2884:
	.loc 9 565 0
	movw	r0, #:lower16:_ZSt4cout
	movt	r0, #:upper16:_ZSt4cout
	bl	_ZNSo3putEc
.LVL350:
.LBB2893:
.LBB2894:
	.loc 9 587 0
	bl	_ZNSo5flushEv
.LVL351:
.LBE2894:
.LBE2893:
.LBE2883:
.LBE2882:
.LBE2881:
	.loc 8 193 0
	movs	r1, #0
	add	r0, sp, #12
	bl	_ZN2cv12VideoCaptureC1Ei
.LEHE13:
.LVL352:
	.loc 8 194 0
	add	r0, sp, #12
	movs	r1, #3
	fldd	d0, .L347
.LEHB14:
	bl	_ZN2cv12VideoCapture3setEid
.LVL353:
	.loc 8 195 0
	add	r0, sp, #12
	movs	r1, #4
	fldd	d0, .L347+8
	bl	_ZN2cv12VideoCapture3setEid
.LVL354:
	.loc 8 196 0
	add	r0, sp, #12
	movs	r1, #14
	fldd	d0, .L347+16
	bl	_ZN2cv12VideoCapture3setEid
.LVL355:
	.loc 8 197 0
	add	r0, sp, #12
	bl	_ZNK2cv12VideoCapture8isOpenedEv
.LVL356:
	cbnz	r0, .L250
.LVL357:
.LBB2898:
.LBB2899:
	.loc 9 535 0
	movw	r0, #:lower16:_ZSt4cout
	movw	r1, #:lower16:.LC8
	movt	r0, #:upper16:_ZSt4cout
	movt	r1, #:upper16:.LC8
	movs	r2, #52
	bl	_ZSt16__ostream_insertIcSt11char_traitsIcEERSt13basic_ostreamIT_T0_ES6_PKS3_i
.LVL358:
.LBE2899:
.LBE2898:
.LBB2900:
.LBB2901:
.LBB2902:
	.loc 9 565 0
	ldr	r3, [r4]
	ldr	r3, [r3, #-12]
	add	r3, r3, r4
	ldr	r5, [r3, #124]
.LVL359:
.LBB2903:
.LBB2904:
.LBB2905:
	.loc 10 48 0
	cmp	r5, #0
	beq	.L339
.LVL360:
.LBE2905:
.LBE2904:
.LBB2907:
.LBB2908:
	.loc 1 867 0
	ldrb	r3, [r5, #28]	@ zero_extendqisi2
	cmp	r3, #0
	beq	.L252
	.loc 1 868 0
	ldrb	r1, [r5, #39]	@ zero_extendqisi2
.LVL361:
.L253:
.LBE2908:
.LBE2907:
.LBE2903:
	.loc 9 565 0
	movw	r0, #:lower16:_ZSt4cout
	movt	r0, #:upper16:_ZSt4cout
	bl	_ZNSo3putEc
.LVL362:
.LBB2914:
.LBB2915:
	.loc 9 587 0
	bl	_ZNSo5flushEv
.LEHE14:
.LVL363:
.LBE2915:
.LBE2914:
.LBE2902:
.LBE2901:
.LBE2900:
	.loc 8 199 0
	movs	r3, #0
	strb	r3, [r6, #1]
.LVL364:
.L250:
.LBB2922:
.LBB2923:
	.loc 9 535 0
	movw	r0, #:lower16:_ZSt4cout
	movw	r1, #:lower16:.LC9
.LBE2923:
.LBE2922:
.LBB2926:
.LBB2927:
.LBB2928:
.LBB2929:
	.loc 13 60 0
	movs	r3, #0
.LBE2929:
.LBE2928:
.LBE2927:
.LBE2926:
.LBB2945:
.LBB2924:
	.loc 9 535 0
	movt	r0, #:upper16:_ZSt4cout
	movt	r1, #:upper16:.LC9
	movs	r2, #13
.LBE2924:
.LBE2945:
.LBB2946:
.LBB2944:
.LBB2933:
.LBB2930:
	.loc 13 60 0
	movt	r3, 17151
.LBE2930:
.LBE2933:
.LBB2934:
.LBB2935:
	.loc 13 706 0
	add	r5, sp, #48
.LVL365:
.LBE2935:
.LBE2934:
.LBB2937:
.LBB2931:
	.loc 13 60 0
	str	r3, [sp, #40]
.LBE2931:
.LBE2937:
.LBB2938:
.LBB2939:
	.loc 13 735 0
	movs	r3, #0
.LBE2939:
.LBE2938:
.LBB2941:
.LBB2936:
	.loc 13 706 0
	str	r5, [sp, #80]
.LVL366:
.LBE2936:
.LBE2941:
.LBB2942:
.LBB2940:
	.loc 13 735 0
	add	r5, sp, #88
.LVL367:
	str	r3, [sp, #92]
	str	r5, [sp, #84]
	add	r5, sp, #40
.LVL368:
	str	r3, [sp, #88]
.LVL369:
.LBE2940:
.LBE2942:
.LBB2943:
.LBB2932:
	.loc 13 61 0
	str	r3, [sp, #52]
	str	r3, [sp, #48]
	str	r3, [sp, #44]
	.loc 13 62 0
	str	r3, [sp, #72]
	str	r3, [sp, #68]
	str	r3, [sp, #64]
	str	r3, [sp, #56]
	.loc 13 63 0
	str	r3, [sp, #60]
	.loc 13 64 0
	str	r3, [sp, #76]
.LVL370:
.LEHB15:
.LBE2932:
.LBE2943:
.LBE2944:
.LBE2946:
.LBB2947:
.LBB2925:
	.loc 9 535 0
	bl	_ZSt16__ostream_insertIcSt11char_traitsIcEERSt13basic_ostreamIT_T0_ES6_PKS3_i
.LVL371:
.LBE2925:
.LBE2947:
.LBB2948:
.LBB2949:
.LBB2950:
	.loc 9 565 0
	ldr	r3, [r4]
	ldr	r3, [r3, #-12]
	add	r3, r3, r4
	ldr	r7, [r3, #124]
.LVL372:
.LBB2951:
.LBB2952:
.LBB2953:
	.loc 10 48 0
	cmp	r7, #0
	beq	.L340
.LVL373:
.LBE2953:
.LBE2952:
.LBB2955:
.LBB2956:
	.loc 1 867 0
	ldrb	r3, [r7, #28]	@ zero_extendqisi2
	cmp	r3, #0
	beq	.L255
	.loc 1 868 0
	ldrb	r1, [r7, #39]	@ zero_extendqisi2
.LVL374:
.L256:
.LBE2956:
.LBE2955:
.LBE2951:
	.loc 9 565 0
	movw	r0, #:lower16:_ZSt4cout
	add	r5, sp, #40
	movt	r0, #:upper16:_ZSt4cout
	bl	_ZNSo3putEc
.LVL375:
	add	r5, sp, #40
.LBB2962:
.LBB2963:
	.loc 9 587 0
	bl	_ZNSo5flushEv
.LVL376:
	movw	r7, #:lower16:_ZNKSt5ctypeIcE8do_widenEc
.LVL377:
	movt	r7, #:upper16:_ZNKSt5ctypeIcE8do_widenEc
.L286:
.LBE2963:
.LBE2962:
.LBE2950:
.LBE2949:
.LBE2948:
	.loc 8 203 0
	ldrb	r3, [r6, #1]	@ zero_extendqisi2
	cmp	r3, #0
	beq	.L329
	ldrb	r3, [r6]	@ zero_extendqisi2
.L258:
.LBB2970:
	.loc 8 204 0
	cmp	r3, #0
	bne	.L258
.LVL378:
.LBB2971:
.LBB2972:
	.loc 9 535 0
	movw	r0, #:lower16:_ZSt4cout
	movw	r1, #:lower16:.LC10
	movt	r0, #:upper16:_ZSt4cout
	movt	r1, #:upper16:.LC10
	movs	r2, #9
	add	r5, sp, #40
	bl	_ZSt16__ostream_insertIcSt11char_traitsIcEERSt13basic_ostreamIT_T0_ES6_PKS3_i
.LVL379:
.LBE2972:
.LBE2971:
.LBB2973:
.LBB2974:
.LBB2975:
	.loc 9 565 0
	ldr	r3, [r4]
	ldr	r3, [r3, #-12]
	add	r3, r3, r4
	ldr	r8, [r3, #124]
.LVL380:
.LBB2976:
.LBB2977:
.LBB2978:
	.loc 10 48 0
	cmp	r8, #0
	beq	.L341
.LVL381:
.LBE2978:
.LBE2977:
.LBB2980:
.LBB2981:
	.loc 1 867 0
	ldrb	r3, [r8, #28]	@ zero_extendqisi2
	cmp	r3, #0
	beq	.L260
	.loc 1 868 0
	ldrb	r1, [r8, #39]	@ zero_extendqisi2
.LVL382:
.L261:
.LBE2981:
.LBE2980:
.LBE2976:
	.loc 9 565 0
	movw	r0, #:lower16:_ZSt4cout
	add	r5, sp, #40
	movt	r0, #:upper16:_ZSt4cout
	bl	_ZNSo3putEc
.LVL383:
	add	r5, sp, #40
.LBB2987:
.LBB2988:
	.loc 9 587 0
	bl	_ZNSo5flushEv
.LVL384:
.LBE2988:
.LBE2987:
.LBE2975:
.LBE2974:
.LBE2973:
	.loc 8 207 0
	add	r5, sp, #40
	add	r0, sp, #12
	mov	r1, r5
	bl	_ZN2cv12VideoCapturersERNS_3MatE
.LVL385:
.LBB2995:
.LBB2996:
	.loc 9 535 0
	movw	r0, #:lower16:_ZSt4cout
	movw	r1, #:lower16:.LC11
	movt	r0, #:upper16:_ZSt4cout
	movt	r1, #:upper16:.LC11
	movs	r2, #14
	bl	_ZSt16__ostream_insertIcSt11char_traitsIcEERSt13basic_ostreamIT_T0_ES6_PKS3_i
.LVL386:
.LBE2996:
.LBE2995:
.LBB2997:
.LBB2998:
.LBB2999:
	.loc 9 565 0
	ldr	r3, [r4]
	ldr	r3, [r3, #-12]
	add	r3, r3, r4
	ldr	r8, [r3, #124]
.LVL387:
.LBB3000:
.LBB3001:
.LBB3002:
	.loc 10 48 0
	cmp	r8, #0
	beq	.L342
.LVL388:
.LBE3002:
.LBE3001:
.LBB3004:
.LBB3005:
	.loc 1 867 0
	ldrb	r3, [r8, #28]	@ zero_extendqisi2
	cmp	r3, #0
	beq	.L263
	.loc 1 868 0
	ldrb	r1, [r8, #39]	@ zero_extendqisi2
.LVL389:
.L264:
.LBE3005:
.LBE3004:
.LBE3000:
	.loc 9 565 0
	movw	r0, #:lower16:_ZSt4cout
	movt	r0, #:upper16:_ZSt4cout
	bl	_ZNSo3putEc
.LVL390:
.LBB3011:
.LBB3012:
	.loc 9 587 0
	bl	_ZNSo5flushEv
.LVL391:
.LBE3012:
.LBE3011:
.LBE2999:
.LBE2998:
.LBE2997:
	.loc 8 209 0
	mov	r1, r5
	movs	r2, #0
	movs	r3, #1
	add	r0, sp, #96
	bl	_ZNK2cv3Mat7reshapeEii
.LEHE15:
.LVL392:
.LBB3019:
.LBB3020:
	.loc 13 285 0
	ldr	r3, [sp, #116]
	cbz	r3, .L265
.LVL393:
.LBB3021:
.LBB3022:
	.loc 7 49 0
	dmb	sy
.L334:
	ldrex	r2, [r3]
	adds	r2, r2, #1
	strex	r1, r2, [r3]
	cmp	r1, #0
	bne	.L334
	dmb	sy
.LVL394:
.L265:
.LBE3022:
.LBE3021:
.LBB3023:
.LBB3024:
	.loc 13 366 0
	ldr	r3, [sp, #60]
	cbz	r3, .L293
.LVL395:
.LBB3025:
.LBB3026:
	.loc 7 49 0
	dmb	sy
.L333:
	ldrex	r2, [r3]
	subs	r1, r2, #1
	strex	r0, r1, [r3]
	cmp	r0, #0
	bne	.L333
.LBE3026:
.LBE3025:
	.loc 13 366 0
	cmp	r2, #1
.LBB3028:
.LBB3027:
	.loc 7 49 0
	dmb	sy
.LBE3027:
.LBE3028:
	.loc 13 366 0
	beq	.L267
.LVL396:
.L293:
	.loc 13 369 0
	ldr	r2, [sp, #80]
	.loc 13 368 0
	movs	r3, #0
	str	r3, [sp, #72]
	str	r3, [sp, #68]
	str	r3, [sp, #64]
	str	r3, [sp, #56]
	.loc 13 369 0
	str	r3, [r2]
.LBE3024:
.LBE3023:
	.loc 13 289 0
	ldr	r2, [sp, #44]
	.loc 13 288 0
	ldr	r1, [sp, #96]
	.loc 13 289 0
	cmp	r2, #2
.LBB3031:
.LBB3029:
	.loc 13 370 0
	str	r3, [sp, #60]
.LBE3029:
.LBE3031:
	.loc 13 288 0
	str	r1, [sp, #40]
	.loc 13 289 0
	bgt	.L268
	ldr	r3, [sp, #100]
	cmp	r3, #2
	ble	.L343
.L268:
	.loc 13 298 0
	mov	r0, r5
	add	r1, sp, #96
.LVL397:
.LEHB16:
	bl	_ZN2cv3Mat8copySizeERKS0_
.LEHE16:
.LVL398:
.L269:
	.loc 13 300 0
	ldr	r1, [sp, #120]
	.loc 13 302 0
	ldr	r3, [sp, #128]
	.loc 13 299 0
	ldr	r0, [sp, #112]
	.loc 13 303 0
	ldr	r2, [sp, #116]
	.loc 13 300 0
	str	r1, [sp, #64]
	.loc 13 302 0
	str	r3, [sp, #72]
	.loc 13 301 0
	ldr	r1, [sp, #124]
	.loc 13 304 0
	ldr	r3, [sp, #132]
	.loc 13 299 0
	str	r0, [sp, #56]
	.loc 13 301 0
	str	r1, [sp, #68]
	.loc 13 303 0
	str	r2, [sp, #60]
	.loc 13 304 0
	str	r3, [sp, #76]
.LVL399:
.LBE3020:
.LBE3019:
.LBB3035:
.LBB3036:
.LBB3037:
.LBB3038:
	.loc 13 366 0
	cbz	r2, .L294
.LVL400:
.LBB3039:
.LBB3040:
	.loc 7 49 0
	dmb	sy
.L332:
	ldrex	r3, [r2]
	subs	r1, r3, #1
	strex	r0, r1, [r2]
	cmp	r0, #0
	bne	.L332
.LBE3040:
.LBE3039:
	.loc 13 366 0
	cmp	r3, #1
.LBB3042:
.LBB3041:
	.loc 7 49 0
	dmb	sy
.LBE3041:
.LBE3042:
	.loc 13 366 0
	beq	.L271
.LVL401:
.L294:
.LBE3038:
.LBE3037:
	.loc 13 277 0
	ldr	r0, [sp, #140]
	add	r2, sp, #144
.LBB3046:
.LBB3043:
	.loc 13 369 0
	ldr	r1, [sp, #136]
	.loc 13 368 0
	movs	r3, #0
.LBE3043:
.LBE3046:
	.loc 13 277 0
	cmp	r0, r2
.LBB3047:
.LBB3044:
	.loc 13 368 0
	str	r3, [sp, #128]
	str	r3, [sp, #124]
	str	r3, [sp, #120]
	str	r3, [sp, #112]
	.loc 13 369 0
	str	r3, [r1]
	.loc 13 370 0
	str	r3, [sp, #116]
.LBE3044:
.LBE3047:
	.loc 13 277 0
	beq	.L272
	.loc 13 278 0
	bl	_ZN2cv8fastFreeEPv
.LVL402:
.L272:
.LBE3036:
.LBE3035:
.LBB3050:
.LBB3051:
	.loc 13 406 0
	ldr	r1, [sp, #44]
	cmp	r1, #2
	bgt	.L273
	.loc 13 407 0
	ldr	r2, [sp, #52]
.LBE3051:
.LBE3050:
.LBB3055:
.LBB3056:
	.loc 13 397 0
	cmp	r1, #0
.LBE3056:
.LBE3055:
.LBB3059:
.LBB3053:
	.loc 13 407 0
	ldr	r3, [sp, #48]
	mul	fp, r3, r2
.LVL403:
.LBE3053:
.LBE3059:
.LBB3060:
.LBB3057:
	.loc 13 397 0
	bgt	.L274
	movs	r3, #0
	str	r3, [sp, #4]
	mov	fp, r3
	b	.L275
.LVL404:
.L329:
.LBE3057:
.LBE3060:
.LBE2970:
.LBB3159:
.LBB3160:
.LBB3161:
.LBB3162:
	.loc 13 366 0
	ldr	r3, [sp, #60]
	cbz	r3, .L295
.LVL405:
.LBB3163:
.LBB3164:
	.loc 7 49 0
	dmb	sy
.L331:
	ldrex	r2, [r3]
	subs	r1, r2, #1
	strex	r0, r1, [r3]
	cmp	r0, #0
	bne	.L331
.LBE3164:
.LBE3163:
	.loc 13 366 0
	cmp	r2, #1
.LBB3166:
.LBB3165:
	.loc 7 49 0
	dmb	sy
.LBE3165:
.LBE3166:
	.loc 13 366 0
	beq	.L288
.LVL406:
.L295:
	.loc 13 369 0
	ldr	r2, [sp, #80]
	.loc 13 368 0
	movs	r3, #0
.LBE3162:
.LBE3161:
	.loc 13 277 0
	ldr	r0, [sp, #84]
.LBB3169:
.LBB3167:
	.loc 13 368 0
	str	r3, [sp, #72]
	str	r3, [sp, #68]
	str	r3, [sp, #64]
	str	r3, [sp, #56]
	.loc 13 369 0
	str	r3, [r2]
	.loc 13 370 0
	str	r3, [sp, #60]
.LBE3167:
.LBE3169:
	.loc 13 277 0
	add	r3, sp, #88
	cmp	r0, r3
	beq	.L289
	.loc 13 278 0
	bl	_ZN2cv8fastFreeEPv
.LVL407:
.L289:
.LBE3160:
.LBE3159:
	.loc 8 220 0
	add	r0, sp, #12
	bl	_ZN2cv12VideoCaptureD1Ev
.LVL408:
.LBE3214:
	.loc 8 222 0
	add	sp, sp, #156
	.cfi_remember_state
	.cfi_def_cfa_offset 36
	@ sp needed
	pop	{r4, r5, r6, r7, r8, r9, r10, fp, pc}
.LVL409:
.L348:
	.align	3
.L347:
	.word	0
	.word	1082720256
	.word	0
	.word	1082310656
	.word	0
	.word	0
.LVL410:
.L273:
	.cfi_restore_state
	ldr	r3, [sp, #80]
.LBB3215:
.LBB3172:
.LBB3061:
.LBB3054:
	.loc 13 406 0
	mov	fp, #1
	add	r0, r3, r1, lsl #2
.L276:
.LVL411:
.LBB3052:
	.loc 13 410 0
	ldr	r2, [r3], #4
	.loc 13 409 0
	cmp	r3, r0
	.loc 13 410 0
	mul	fp, r2, fp
.LVL412:
	.loc 13 409 0
	bne	.L276
.LVL413:
.L274:
.LBE3052:
.LBE3054:
.LBE3061:
.LBB3062:
.LBB3058:
	.loc 13 397 0
	add	r1, r1, #1073741824
	ldr	r3, [sp, #84]
	subs	r1, r1, #1
	ldr	r3, [r3, r1, lsl #2]
	mul	fp, r3, fp
	str	fp, [sp, #4]
.L275:
.LVL414:
.LBE3058:
.LBE3062:
.LBB3063:
.LBB3064:
	.loc 9 196 0
	movw	r0, #:lower16:_ZSt4cout
	movs	r1, #4
	movt	r0, #:upper16:_ZSt4cout
.LEHB17:
	bl	_ZNSo9_M_insertImEERSoT_
.LVL415:
.LBE3064:
.LBE3063:
.LBB3066:
.LBB3067:
.LBB3068:
	.loc 9 565 0
	ldr	r3, [r0]
.LBE3068:
.LBE3067:
.LBE3066:
.LBB3090:
.LBB3065:
	.loc 9 196 0
	mov	r9, r0
.LVL416:
	ldr	r3, [r3, #-12]
	add	r3, r3, r0
	ldr	r8, [r3, #124]
.LVL417:
.LBE3065:
.LBE3090:
.LBB3091:
.LBB3087:
.LBB3084:
.LBB3069:
.LBB3070:
.LBB3071:
	.loc 10 48 0
	cmp	r8, #0
	beq	.L344
.LVL418:
.LBE3071:
.LBE3070:
.LBB3073:
.LBB3074:
	.loc 1 867 0
	ldrb	r3, [r8, #28]	@ zero_extendqisi2
.LVL419:
	cmp	r3, #0
	beq	.L278
	.loc 1 868 0
	ldrb	r1, [r8, #39]	@ zero_extendqisi2
.LVL420:
.L279:
.LBE3074:
.LBE3073:
.LBE3069:
	.loc 9 565 0
	mov	r0, r9
	bl	_ZNSo3putEc
.LVL421:
.LBB3080:
.LBB3081:
	.loc 9 587 0
	bl	_ZNSo5flushEv
.LVL422:
.LBE3081:
.LBE3080:
.LBE3084:
.LBE3087:
.LBE3091:
	.loc 8 213 0
	movw	r0, #:lower16:_ZSt4cout
	ldr	r1, [sp, #4]
	movt	r0, #:upper16:_ZSt4cout
	bl	_ZNSolsEi
.LVL423:
.LBB3092:
.LBB3093:
.LBB3094:
	.loc 9 565 0
	ldr	r3, [r0]
.LBE3094:
.LBE3093:
.LBE3092:
	.loc 8 213 0
	mov	r9, r0
.LVL424:
	ldr	r3, [r3, #-12]
	add	r3, r3, r0
	ldr	r8, [r3, #124]
.LVL425:
.LBB3116:
.LBB3113:
.LBB3110:
.LBB3095:
.LBB3096:
.LBB3097:
	.loc 10 48 0
	cmp	r8, #0
	beq	.L345
.LVL426:
.LBE3097:
.LBE3096:
.LBB3099:
.LBB3100:
	.loc 1 867 0
	ldrb	r3, [r8, #28]	@ zero_extendqisi2
.LVL427:
	cmp	r3, #0
	beq	.L281
	.loc 1 868 0
	ldrb	r1, [r8, #39]	@ zero_extendqisi2
.LVL428:
.L282:
.LBE3100:
.LBE3099:
.LBE3095:
	.loc 9 565 0
	mov	r0, r9
	bl	_ZNSo3putEc
.LVL429:
.LBB3106:
.LBB3107:
	.loc 9 587 0
	bl	_ZNSo5flushEv
.LVL430:
.LBE3107:
.LBE3106:
.LBE3110:
.LBE3113:
.LBE3116:
	.loc 8 215 0
	mov	r0, r10
	mov	r2, fp
	ldr	r1, [sp, #56]
	bl	write
.LVL431:
	mov	fp, r0
.LVL432:
.LBB3117:
.LBB3118:
	.loc 9 535 0
	movw	r1, #:lower16:.LC12
	movw	r0, #:lower16:_ZSt4cout
.LVL433:
	movt	r1, #:upper16:.LC12
	movt	r0, #:upper16:_ZSt4cout
	movs	r2, #21
	bl	_ZSt16__ostream_insertIcSt11char_traitsIcEERSt13basic_ostreamIT_T0_ES6_PKS3_i
.LVL434:
.LBE3118:
.LBE3117:
	.loc 8 216 0
	movw	r0, #:lower16:_ZSt4cout
	mov	r1, fp
	movt	r0, #:upper16:_ZSt4cout
	bl	_ZNSolsEi
.LVL435:
.LBB3119:
.LBB3120:
.LBB3121:
	.loc 9 565 0
	ldr	r3, [r0]
.LBE3121:
.LBE3120:
.LBE3119:
	.loc 8 216 0
	mov	r9, r0
.LVL436:
	ldr	r3, [r3, #-12]
	add	r3, r3, r0
	ldr	r8, [r3, #124]
.LVL437:
.LBB3143:
.LBB3140:
.LBB3137:
.LBB3122:
.LBB3123:
.LBB3124:
	.loc 10 48 0
	cmp	r8, #0
	beq	.L346
.LVL438:
.LBE3124:
.LBE3123:
.LBB3126:
.LBB3127:
	.loc 1 867 0
	ldrb	r3, [r8, #28]	@ zero_extendqisi2
.LVL439:
	cmp	r3, #0
	beq	.L284
	.loc 1 868 0
	ldrb	r1, [r8, #39]	@ zero_extendqisi2
.LVL440:
.L285:
.LBE3127:
.LBE3126:
.LBE3122:
	.loc 9 565 0
	mov	r0, r9
	bl	_ZNSo3putEc
.LVL441:
.LBB3133:
.LBB3134:
	.loc 9 587 0
	bl	_ZNSo5flushEv
.LVL442:
.LBE3134:
.LBE3133:
.LBE3137:
.LBE3140:
.LBE3143:
	.loc 8 217 0
	cmp	fp, #0
	bge	.L286
.LVL443:
.LBB3144:
.LBB3145:
	.loc 9 535 0
	movw	r0, #:lower16:_ZSt4cout
	movw	r1, #:lower16:.LC5
	movt	r0, #:upper16:_ZSt4cout
	movt	r1, #:upper16:.LC5
	movs	r2, #24
	bl	_ZSt16__ostream_insertIcSt11char_traitsIcEERSt13basic_ostreamIT_T0_ES6_PKS3_i
.LVL444:
	b	.L286
.LVL445:
.L343:
.LBE3145:
.LBE3144:
.LBB3146:
.LBB3033:
	.loc 13 293 0
	ldr	r1, [sp, #108]
	ldr	r2, [sp, #140]
	.loc 13 292 0
	ldr	r0, [sp, #104]
	.loc 13 291 0
	str	r3, [sp, #44]
	.loc 13 293 0
	str	r1, [sp, #52]
	.loc 13 292 0
	str	r0, [sp, #48]
	ldr	r3, [sp, #84]
.LVL446:
	.loc 13 294 0
	ldr	r1, [r2]
	str	r1, [r3]
.LVL447:
	.loc 13 295 0
	ldr	r2, [r2, #4]
	str	r2, [r3, #4]
	b	.L269
.LVL448:
.L255:
.LBE3033:
.LBE3146:
.LBE3172:
.LBB3173:
.LBB2968:
.LBB2966:
.LBB2964:
.LBB2960:
.LBB2959:
.LBB2957:
.LBB2958:
	.loc 1 869 0
	mov	r0, r7
	add	r5, sp, #40
	bl	_ZNKSt5ctypeIcE13_M_widen_initEv
.LVL449:
	.loc 1 870 0
	ldr	r2, [r7]
	movw	r3, #:lower16:_ZNKSt5ctypeIcE8do_widenEc
	movt	r3, #:upper16:_ZNKSt5ctypeIcE8do_widenEc
	ldr	r2, [r2, #24]
	cmp	r2, r3
	it	eq
	moveq	r1, #10
	beq	.L256
	mov	r0, r7
	movs	r1, #10
	add	r5, sp, #40
	blx	r2
.LEHE17:
.LVL450:
	mov	r1, r0
	b	.L256
.LVL451:
.L248:
.LBE2958:
.LBE2957:
.LBE2959:
.LBE2960:
.LBE2964:
.LBE2966:
.LBE2968:
.LBE3173:
.LBB3174:
.LBB2897:
.LBB2896:
.LBB2895:
.LBB2892:
.LBB2891:
.LBB2889:
.LBB2890:
	.loc 1 869 0
	mov	r0, r5
.LEHB18:
	bl	_ZNKSt5ctypeIcE13_M_widen_initEv
.LVL452:
	.loc 1 870 0
	ldr	r2, [r5]
	movw	r3, #:lower16:_ZNKSt5ctypeIcE8do_widenEc
	movt	r3, #:upper16:_ZNKSt5ctypeIcE8do_widenEc
	ldr	r2, [r2, #24]
	cmp	r2, r3
	it	eq
	moveq	r1, #10
	beq	.L249
	movs	r1, #10
	mov	r0, r5
	blx	r2
.LEHE18:
.LVL453:
	mov	r1, r0
	b	.L249
.LVL454:
.L281:
.LBE2890:
.LBE2889:
.LBE2891:
.LBE2892:
.LBE2895:
.LBE2896:
.LBE2897:
.LBE3174:
.LBB3175:
.LBB3147:
.LBB3114:
.LBB3111:
.LBB3108:
.LBB3104:
.LBB3103:
.LBB3101:
.LBB3102:
	.loc 1 869 0
	mov	r0, r8
.LVL455:
.LEHB19:
	bl	_ZNKSt5ctypeIcE13_M_widen_initEv
.LVL456:
	.loc 1 870 0
	ldr	r3, [r8]
	ldr	r3, [r3, #24]
	cmp	r3, r7
	it	eq
	moveq	r1, #10
	beq	.L282
	mov	r0, r8
	movs	r1, #10
	blx	r3
.LVL457:
	mov	r1, r0
	b	.L282
.LVL458:
.L278:
.LBE3102:
.LBE3101:
.LBE3103:
.LBE3104:
.LBE3108:
.LBE3111:
.LBE3114:
.LBE3147:
.LBB3148:
.LBB3088:
.LBB3085:
.LBB3082:
.LBB3078:
.LBB3077:
.LBB3075:
.LBB3076:
	.loc 1 869 0
	mov	r0, r8
.LVL459:
	bl	_ZNKSt5ctypeIcE13_M_widen_initEv
.LVL460:
	.loc 1 870 0
	ldr	r3, [r8]
	ldr	r3, [r3, #24]
	cmp	r3, r7
	it	eq
	moveq	r1, #10
	beq	.L279
	mov	r0, r8
	movs	r1, #10
	blx	r3
.LVL461:
	mov	r1, r0
	b	.L279
.LVL462:
.L260:
.LBE3076:
.LBE3075:
.LBE3077:
.LBE3078:
.LBE3082:
.LBE3085:
.LBE3088:
.LBE3148:
.LBB3149:
.LBB2993:
.LBB2991:
.LBB2989:
.LBB2985:
.LBB2984:
.LBB2982:
.LBB2983:
	.loc 1 869 0
	mov	r0, r8
	add	r5, sp, #40
	bl	_ZNKSt5ctypeIcE13_M_widen_initEv
.LVL463:
	.loc 1 870 0
	ldr	r3, [r8]
	ldr	r3, [r3, #24]
	cmp	r3, r7
	it	eq
	moveq	r1, #10
	beq	.L261
	mov	r0, r8
	movs	r1, #10
	add	r5, sp, #40
	blx	r3
.LVL464:
	mov	r1, r0
	b	.L261
.LVL465:
.L284:
.LBE2983:
.LBE2982:
.LBE2984:
.LBE2985:
.LBE2989:
.LBE2991:
.LBE2993:
.LBE3149:
.LBB3150:
.LBB3141:
.LBB3138:
.LBB3135:
.LBB3131:
.LBB3130:
.LBB3128:
.LBB3129:
	.loc 1 869 0
	mov	r0, r8
.LVL466:
	bl	_ZNKSt5ctypeIcE13_M_widen_initEv
.LVL467:
	.loc 1 870 0
	ldr	r3, [r8]
	ldr	r3, [r3, #24]
	cmp	r3, r7
	it	eq
	moveq	r1, #10
	beq	.L285
	mov	r0, r8
	movs	r1, #10
	blx	r3
.LVL468:
	mov	r1, r0
	b	.L285
.LVL469:
.L263:
.LBE3129:
.LBE3128:
.LBE3130:
.LBE3131:
.LBE3135:
.LBE3138:
.LBE3141:
.LBE3150:
.LBB3151:
.LBB3017:
.LBB3015:
.LBB3013:
.LBB3009:
.LBB3008:
.LBB3006:
.LBB3007:
	.loc 1 869 0
	mov	r0, r8
	bl	_ZNKSt5ctypeIcE13_M_widen_initEv
.LVL470:
	.loc 1 870 0
	ldr	r3, [r8]
	ldr	r3, [r3, #24]
	cmp	r3, r7
	it	eq
	moveq	r1, #10
	beq	.L264
	mov	r0, r8
	movs	r1, #10
	blx	r3
.LEHE19:
.LVL471:
	mov	r1, r0
	b	.L264
.LVL472:
.L252:
.LBE3007:
.LBE3006:
.LBE3008:
.LBE3009:
.LBE3013:
.LBE3015:
.LBE3017:
.LBE3151:
.LBE3175:
.LBB3176:
.LBB2920:
.LBB2918:
.LBB2916:
.LBB2912:
.LBB2911:
.LBB2909:
.LBB2910:
	.loc 1 869 0
	mov	r0, r5
.LEHB20:
	bl	_ZNKSt5ctypeIcE13_M_widen_initEv
.LVL473:
	.loc 1 870 0
	ldr	r2, [r5]
	movw	r3, #:lower16:_ZNKSt5ctypeIcE8do_widenEc
	movt	r3, #:upper16:_ZNKSt5ctypeIcE8do_widenEc
	ldr	r2, [r2, #24]
	cmp	r2, r3
	it	eq
	moveq	r1, #10
	beq	.L253
	mov	r0, r5
	movs	r1, #10
	blx	r2
.LEHE20:
.LVL474:
	mov	r1, r0
	b	.L253
.LVL475:
.L288:
.LBE2910:
.LBE2909:
.LBE2911:
.LBE2912:
.LBE2916:
.LBE2918:
.LBE2920:
.LBE3176:
.LBB3177:
.LBB3171:
.LBB3170:
.LBB3168:
	.loc 13 367 0
	add	r0, sp, #40
	bl	_ZN2cv3Mat10deallocateEv
.LVL476:
	b	.L295
.LVL477:
.L271:
.LBE3168:
.LBE3170:
.LBE3171:
.LBE3177:
.LBB3178:
.LBB3152:
.LBB3049:
.LBB3048:
.LBB3045:
	add	r0, sp, #96
.LVL478:
	bl	_ZN2cv3Mat10deallocateEv
.LVL479:
	b	.L294
.LVL480:
.L267:
.LBE3045:
.LBE3048:
.LBE3049:
.LBE3152:
.LBB3153:
.LBB3034:
.LBB3032:
.LBB3030:
	mov	r0, r5
.LEHB21:
	bl	_ZN2cv3Mat10deallocateEv
.LEHE21:
.LVL481:
	b	.L293
.LVL482:
.L338:
.LBE3030:
.LBE3032:
.LBE3034:
.LBE3153:
.LBE3178:
	.loc 8 188 0
	movw	r0, #:lower16:.LC3
	movt	r0, #:upper16:.LC3
.LEHB22:
	bl	puts
.LVL483:
	.loc 8 189 0
	movs	r3, #0
	strb	r3, [r6, #1]
	b	.L246
.LVL484:
.L337:
.LBB3179:
.LBB3180:
	.loc 9 535 0
	movw	r4, #:lower16:_ZSt4cout
	movw	r1, #:lower16:.LC2
	movt	r4, #:upper16:_ZSt4cout
	movt	r1, #:upper16:.LC2
	mov	r0, r4
.LVL485:
	movs	r2, #20
	bl	_ZSt16__ostream_insertIcSt11char_traitsIcEERSt13basic_ostreamIT_T0_ES6_PKS3_i
.LVL486:
.LBE3180:
.LBE3179:
.LBB3181:
.LBB3182:
.LBB3183:
	.loc 9 565 0
	ldr	r3, [r4]
	ldr	r3, [r3, #-12]
	add	r3, r3, r4
	ldr	r5, [r3, #124]
.LVL487:
.LBB3184:
.LBB3185:
.LBB3186:
	.loc 10 48 0
	cmp	r5, #0
	beq	.L247
.LVL488:
.LBE3186:
.LBE3185:
.LBB3188:
.LBB3189:
	.loc 1 867 0
	ldrb	r3, [r5, #28]	@ zero_extendqisi2
	cbz	r3, .L242
	.loc 1 868 0
	ldrb	r1, [r5, #39]	@ zero_extendqisi2
.LVL489:
.L243:
.LBE3189:
.LBE3188:
.LBE3184:
	.loc 9 565 0
	movw	r0, #:lower16:_ZSt4cout
	movt	r0, #:upper16:_ZSt4cout
	bl	_ZNSo3putEc
.LVL490:
.LBB3195:
.LBB3196:
	.loc 9 587 0
	bl	_ZNSo5flushEv
.LVL491:
.LBE3196:
.LBE3195:
.LBE3183:
.LBE3182:
.LBE3181:
	.loc 8 169 0
	movs	r3, #0
	.loc 8 171 0
	ldr	r0, [r6, #8]
	.loc 8 169 0
	strb	r3, [r6, #1]
	.loc 8 171 0
	bl	gethostbyname
.LVL492:
	.loc 8 172 0
	mov	r5, r0
.LVL493:
	cmp	r0, #0
	bne	.L245
.LVL494:
.LBB3203:
.LBB3204:
	.loc 9 535 0
	movw	r0, #:lower16:_ZSt4cout
.LVL495:
	movw	r1, #:lower16:.LC6
	movt	r0, #:upper16:_ZSt4cout
	movt	r1, #:upper16:.LC6
	movs	r2, #20
	bl	_ZSt16__ostream_insertIcSt11char_traitsIcEERSt13basic_ostreamIT_T0_ES6_PKS3_i
.LVL496:
.L296:
.LBE3204:
.LBE3203:
	.loc 8 176 0
	movs	r5, #0
.LVL497:
	strb	r5, [r6, #1]
	b	.L245
.LVL498:
.L242:
.LBB3206:
.LBB3201:
.LBB3199:
.LBB3197:
.LBB3193:
.LBB3192:
.LBB3190:
.LBB3191:
	.loc 1 869 0
	mov	r0, r5
	bl	_ZNKSt5ctypeIcE13_M_widen_initEv
.LVL499:
	.loc 1 870 0
	ldr	r2, [r5]
	movw	r3, #:lower16:_ZNKSt5ctypeIcE8do_widenEc
	movt	r3, #:upper16:_ZNKSt5ctypeIcE8do_widenEc
	ldr	r2, [r2, #24]
	cmp	r2, r3
	it	eq
	moveq	r1, #10
	beq	.L243
	movs	r1, #10
	mov	r0, r5
	blx	r2
.LEHE22:
.LVL500:
	mov	r1, r0
	b	.L243
.LVL501:
.L339:
.LEHB23:
.LBE3191:
.LBE3190:
.LBE3192:
.LBE3193:
.LBE3197:
.LBE3199:
.LBE3201:
.LBE3206:
.LBB3207:
.LBB2921:
.LBB2919:
.LBB2917:
.LBB2913:
.LBB2906:
	.loc 10 49 0
	bl	_ZSt16__throw_bad_castv
.LEHE23:
.LVL502:
.L307:
.L292:
.LBE2906:
.LBE2913:
.LBE2917:
.LBE2919:
.LBE2921:
.LBE3207:
	.loc 8 220 0
	add	r0, sp, #12
	bl	_ZN2cv12VideoCaptureD1Ev
.LVL503:
.LEHB24:
	bl	__cxa_end_cleanup
.LEHE24:
.LVL504:
.L344:
.LEHB25:
.LBB3208:
.LBB3154:
.LBB3089:
.LBB3086:
.LBB3083:
.LBB3079:
.LBB3072:
	.loc 10 49 0
	bl	_ZSt16__throw_bad_castv
.LVL505:
.L345:
.LBE3072:
.LBE3079:
.LBE3083:
.LBE3086:
.LBE3089:
.LBE3154:
.LBB3155:
.LBB3115:
.LBB3112:
.LBB3109:
.LBB3105:
.LBB3098:
	bl	_ZSt16__throw_bad_castv
.LVL506:
.L342:
.LBE3098:
.LBE3105:
.LBE3109:
.LBE3112:
.LBE3115:
.LBE3155:
.LBB3156:
.LBB3018:
.LBB3016:
.LBB3014:
.LBB3010:
.LBB3003:
	bl	_ZSt16__throw_bad_castv
.LVL507:
.L309:
.LBE3003:
.LBE3010:
.LBE3014:
.LBE3016:
.LBE3018:
.LBE3156:
	.loc 8 209 0
	add	r0, sp, #96
.LVL508:
	bl	_ZN2cv3MatD1Ev
.LVL509:
.L291:
.LBE3208:
	.loc 8 201 0
	mov	r0, r5
	bl	_ZN2cv3MatD1Ev
.LVL510:
	b	.L292
.LVL511:
.L341:
	add	r5, sp, #40
.LBB3209:
.LBB3157:
.LBB2994:
.LBB2992:
.LBB2990:
.LBB2986:
.LBB2979:
	.loc 10 49 0
	bl	_ZSt16__throw_bad_castv
.LEHE25:
.LVL512:
.L247:
.LEHB26:
.LBE2979:
.LBE2986:
.LBE2990:
.LBE2992:
.LBE2994:
.LBE3157:
.LBE3209:
.LBB3210:
.LBB3202:
.LBB3200:
.LBB3198:
.LBB3194:
.LBB3187:
	bl	_ZSt16__throw_bad_castv
.LEHE26:
.LVL513:
.L346:
.LEHB27:
.LBE3187:
.LBE3194:
.LBE3198:
.LBE3200:
.LBE3202:
.LBE3210:
.LBB3211:
.LBB3158:
.LBB3142:
.LBB3139:
.LBB3136:
.LBB3132:
.LBB3125:
	bl	_ZSt16__throw_bad_castv
.LEHE27:
.LVL514:
.L297:
.LBE3125:
.LBE3132:
.LBE3136:
.LBE3139:
.LBE3142:
.LBE3158:
.LBE3211:
.LBB3212:
.LBB3205:
	.loc 9 535 0
	movw	r0, #:lower16:_ZSt4cout
.LVL515:
	movw	r1, #:lower16:.LC6
	movt	r1, #:upper16:.LC6
	movs	r2, #20
	movt	r0, #:upper16:_ZSt4cout
	movw	r4, #:lower16:_ZSt4cout
.LEHB28:
	bl	_ZSt16__ostream_insertIcSt11char_traitsIcEERSt13basic_ostreamIT_T0_ES6_PKS3_i
.LVL516:
.LBE3205:
.LBE3212:
	.loc 8 175 0
	mov	r0, r10
	bl	close
.LEHE28:
.LVL517:
	movt	r4, #:upper16:_ZSt4cout
	b	.L296
.LVL518:
.L340:
	add	r5, sp, #40
.LEHB29:
.LBB3213:
.LBB2969:
.LBB2967:
.LBB2965:
.LBB2961:
.LBB2954:
	.loc 10 49 0
	bl	_ZSt16__throw_bad_castv
.LEHE29:
.LVL519:
.L308:
	b	.L291
.LBE2954:
.LBE2961:
.LBE2965:
.LBE2967:
.LBE2969:
.LBE3213:
.LBE3215:
	.cfi_endproc
.LFE6978:
	.personality	__gxx_personality_v0
	.handlerdata
.LLSDA6978:
	.byte	0xff
	.byte	0xff
	.byte	0x1
	.uleb128 .LLSDACSE6978-.LLSDACSB6978
.LLSDACSB6978:
	.uleb128 .LEHB13-.LFB6978
	.uleb128 .LEHE13-.LEHB13
	.uleb128 0
	.uleb128 0
	.uleb128 .LEHB14-.LFB6978
	.uleb128 .LEHE14-.LEHB14
	.uleb128 .L307-.LFB6978
	.uleb128 0
	.uleb128 .LEHB15-.LFB6978
	.uleb128 .LEHE15-.LEHB15
	.uleb128 .L308-.LFB6978
	.uleb128 0
	.uleb128 .LEHB16-.LFB6978
	.uleb128 .LEHE16-.LEHB16
	.uleb128 .L309-.LFB6978
	.uleb128 0
	.uleb128 .LEHB17-.LFB6978
	.uleb128 .LEHE17-.LEHB17
	.uleb128 .L308-.LFB6978
	.uleb128 0
	.uleb128 .LEHB18-.LFB6978
	.uleb128 .LEHE18-.LEHB18
	.uleb128 0
	.uleb128 0
	.uleb128 .LEHB19-.LFB6978
	.uleb128 .LEHE19-.LEHB19
	.uleb128 .L308-.LFB6978
	.uleb128 0
	.uleb128 .LEHB20-.LFB6978
	.uleb128 .LEHE20-.LEHB20
	.uleb128 .L307-.LFB6978
	.uleb128 0
	.uleb128 .LEHB21-.LFB6978
	.uleb128 .LEHE21-.LEHB21
	.uleb128 .L309-.LFB6978
	.uleb128 0
	.uleb128 .LEHB22-.LFB6978
	.uleb128 .LEHE22-.LEHB22
	.uleb128 0
	.uleb128 0
	.uleb128 .LEHB23-.LFB6978
	.uleb128 .LEHE23-.LEHB23
	.uleb128 .L307-.LFB6978
	.uleb128 0
	.uleb128 .LEHB24-.LFB6978
	.uleb128 .LEHE24-.LEHB24
	.uleb128 0
	.uleb128 0
	.uleb128 .LEHB25-.LFB6978
	.uleb128 .LEHE25-.LEHB25
	.uleb128 .L308-.LFB6978
	.uleb128 0
	.uleb128 .LEHB26-.LFB6978
	.uleb128 .LEHE26-.LEHB26
	.uleb128 0
	.uleb128 0
	.uleb128 .LEHB27-.LFB6978
	.uleb128 .LEHE27-.LEHB27
	.uleb128 .L308-.LFB6978
	.uleb128 0
	.uleb128 .LEHB28-.LFB6978
	.uleb128 .LEHE28-.LEHB28
	.uleb128 0
	.uleb128 0
	.uleb128 .LEHB29-.LFB6978
	.uleb128 .LEHE29-.LEHB29
	.uleb128 .L308-.LFB6978
	.uleb128 0
.LLSDACSE6978:
	.text
	.fnend
	.size	_ZN6Client12CaptureVideoEv, .-_ZN6Client12CaptureVideoEv
	.weak	_ZTISt11_Mutex_baseILN9__gnu_cxx12_Lock_policyE2EE
	.section	.rodata._ZTISt11_Mutex_baseILN9__gnu_cxx12_Lock_policyE2EE,"aG",%progbits,_ZTISt11_Mutex_baseILN9__gnu_cxx12_Lock_policyE2EE,comdat
	.align	2
	.type	_ZTISt11_Mutex_baseILN9__gnu_cxx12_Lock_policyE2EE, %object
	.size	_ZTISt11_Mutex_baseILN9__gnu_cxx12_Lock_policyE2EE, 8
_ZTISt11_Mutex_baseILN9__gnu_cxx12_Lock_policyE2EE:
	.word	_ZTVN10__cxxabiv117__class_type_infoE+8
	.word	_ZTSSt11_Mutex_baseILN9__gnu_cxx12_Lock_policyE2EE
	.weak	_ZTSSt11_Mutex_baseILN9__gnu_cxx12_Lock_policyE2EE
	.section	.rodata._ZTSSt11_Mutex_baseILN9__gnu_cxx12_Lock_policyE2EE,"aG",%progbits,_ZTSSt11_Mutex_baseILN9__gnu_cxx12_Lock_policyE2EE,comdat
	.align	2
	.type	_ZTSSt11_Mutex_baseILN9__gnu_cxx12_Lock_policyE2EE, %object
	.size	_ZTSSt11_Mutex_baseILN9__gnu_cxx12_Lock_policyE2EE, 47
_ZTSSt11_Mutex_baseILN9__gnu_cxx12_Lock_policyE2EE:
	.ascii	"St11_Mutex_baseILN9__gnu_cxx12_Lock_policyE2EE\000"
	.weak	_ZTISt16_Sp_counted_baseILN9__gnu_cxx12_Lock_policyE2EE
	.section	.rodata._ZTISt16_Sp_counted_baseILN9__gnu_cxx12_Lock_policyE2EE,"aG",%progbits,_ZTISt16_Sp_counted_baseILN9__gnu_cxx12_Lock_policyE2EE,comdat
	.align	2
	.type	_ZTISt16_Sp_counted_baseILN9__gnu_cxx12_Lock_policyE2EE, %object
	.size	_ZTISt16_Sp_counted_baseILN9__gnu_cxx12_Lock_policyE2EE, 12
_ZTISt16_Sp_counted_baseILN9__gnu_cxx12_Lock_policyE2EE:
	.word	_ZTVN10__cxxabiv120__si_class_type_infoE+8
	.word	_ZTSSt16_Sp_counted_baseILN9__gnu_cxx12_Lock_policyE2EE
	.word	_ZTISt11_Mutex_baseILN9__gnu_cxx12_Lock_policyE2EE
	.weak	_ZTSSt16_Sp_counted_baseILN9__gnu_cxx12_Lock_policyE2EE
	.section	.rodata._ZTSSt16_Sp_counted_baseILN9__gnu_cxx12_Lock_policyE2EE,"aG",%progbits,_ZTSSt16_Sp_counted_baseILN9__gnu_cxx12_Lock_policyE2EE,comdat
	.align	2
	.type	_ZTSSt16_Sp_counted_baseILN9__gnu_cxx12_Lock_policyE2EE, %object
	.size	_ZTSSt16_Sp_counted_baseILN9__gnu_cxx12_Lock_policyE2EE, 52
_ZTSSt16_Sp_counted_baseILN9__gnu_cxx12_Lock_policyE2EE:
	.ascii	"St16_Sp_counted_baseILN9__gnu_cxx12_Lock_policyE2EE"
	.ascii	"\000"
	.weak	_ZTINSt6thread10_Impl_baseE
	.section	.rodata._ZTINSt6thread10_Impl_baseE,"aG",%progbits,_ZTINSt6thread10_Impl_baseE,comdat
	.align	2
	.type	_ZTINSt6thread10_Impl_baseE, %object
	.size	_ZTINSt6thread10_Impl_baseE, 8
_ZTINSt6thread10_Impl_baseE:
	.word	_ZTVN10__cxxabiv117__class_type_infoE+8
	.word	_ZTSNSt6thread10_Impl_baseE
	.weak	_ZTSNSt6thread10_Impl_baseE
	.section	.rodata._ZTSNSt6thread10_Impl_baseE,"aG",%progbits,_ZTSNSt6thread10_Impl_baseE,comdat
	.align	2
	.type	_ZTSNSt6thread10_Impl_baseE, %object
	.size	_ZTSNSt6thread10_Impl_baseE, 24
_ZTSNSt6thread10_Impl_baseE:
	.ascii	"NSt6thread10_Impl_baseE\000"
	.weak	_ZTINSt6thread5_ImplISt12_Bind_simpleIFSt7_Mem_fnIM6ClientFvvEEPS3_EEEE
	.section	.rodata._ZTINSt6thread5_ImplISt12_Bind_simpleIFSt7_Mem_fnIM6ClientFvvEEPS3_EEEE,"aG",%progbits,_ZTINSt6thread5_ImplISt12_Bind_simpleIFSt7_Mem_fnIM6ClientFvvEEPS3_EEEE,comdat
	.align	2
	.type	_ZTINSt6thread5_ImplISt12_Bind_simpleIFSt7_Mem_fnIM6ClientFvvEEPS3_EEEE, %object
	.size	_ZTINSt6thread5_ImplISt12_Bind_simpleIFSt7_Mem_fnIM6ClientFvvEEPS3_EEEE, 12
_ZTINSt6thread5_ImplISt12_Bind_simpleIFSt7_Mem_fnIM6ClientFvvEEPS3_EEEE:
	.word	_ZTVN10__cxxabiv120__si_class_type_infoE+8
	.word	_ZTSNSt6thread5_ImplISt12_Bind_simpleIFSt7_Mem_fnIM6ClientFvvEEPS3_EEEE
	.word	_ZTINSt6thread10_Impl_baseE
	.weak	_ZTSNSt6thread5_ImplISt12_Bind_simpleIFSt7_Mem_fnIM6ClientFvvEEPS3_EEEE
	.section	.rodata._ZTSNSt6thread5_ImplISt12_Bind_simpleIFSt7_Mem_fnIM6ClientFvvEEPS3_EEEE,"aG",%progbits,_ZTSNSt6thread5_ImplISt12_Bind_simpleIFSt7_Mem_fnIM6ClientFvvEEPS3_EEEE,comdat
	.align	2
	.type	_ZTSNSt6thread5_ImplISt12_Bind_simpleIFSt7_Mem_fnIM6ClientFvvEEPS3_EEEE, %object
	.size	_ZTSNSt6thread5_ImplISt12_Bind_simpleIFSt7_Mem_fnIM6ClientFvvEEPS3_EEEE, 68
_ZTSNSt6thread5_ImplISt12_Bind_simpleIFSt7_Mem_fnIM6ClientFvvEEPS3_EEEE:
	.ascii	"NSt6thread5_ImplISt12_Bind_simpleIFSt7_Mem_fnIM6Cli"
	.ascii	"entFvvEEPS3_EEEE\000"
	.weak	_ZTISt19_Sp_make_shared_tag
	.section	.rodata._ZTISt19_Sp_make_shared_tag,"aG",%progbits,_ZTISt19_Sp_make_shared_tag,comdat
	.align	2
	.type	_ZTISt19_Sp_make_shared_tag, %object
	.size	_ZTISt19_Sp_make_shared_tag, 8
_ZTISt19_Sp_make_shared_tag:
	.word	_ZTVN10__cxxabiv117__class_type_infoE+8
	.word	_ZTSSt19_Sp_make_shared_tag
	.weak	_ZTSSt19_Sp_make_shared_tag
	.section	.rodata._ZTSSt19_Sp_make_shared_tag,"aG",%progbits,_ZTSSt19_Sp_make_shared_tag,comdat
	.align	2
	.type	_ZTSSt19_Sp_make_shared_tag, %object
	.size	_ZTSSt19_Sp_make_shared_tag, 24
_ZTSSt19_Sp_make_shared_tag:
	.ascii	"St19_Sp_make_shared_tag\000"
	.weak	_ZTISt23_Sp_counted_ptr_inplaceINSt6thread5_ImplISt12_Bind_simpleIFSt7_Mem_fnIM6ClientFvvEEPS4_EEEESaISB_ELN9__gnu_cxx12_Lock_policyE2EE
	.section	.rodata._ZTISt23_Sp_counted_ptr_inplaceINSt6thread5_ImplISt12_Bind_simpleIFSt7_Mem_fnIM6ClientFvvEEPS4_EEEESaISB_ELN9__gnu_cxx12_Lock_policyE2EE,"aG",%progbits,_ZTISt23_Sp_counted_ptr_inplaceINSt6thread5_ImplISt12_Bind_simpleIFSt7_Mem_fnIM6ClientFvvEEPS4_EEEESaISB_ELN9__gnu_cxx12_Lock_policyE2EE,comdat
	.align	2
	.type	_ZTISt23_Sp_counted_ptr_inplaceINSt6thread5_ImplISt12_Bind_simpleIFSt7_Mem_fnIM6ClientFvvEEPS4_EEEESaISB_ELN9__gnu_cxx12_Lock_policyE2EE, %object
	.size	_ZTISt23_Sp_counted_ptr_inplaceINSt6thread5_ImplISt12_Bind_simpleIFSt7_Mem_fnIM6ClientFvvEEPS4_EEEESaISB_ELN9__gnu_cxx12_Lock_policyE2EE, 12
_ZTISt23_Sp_counted_ptr_inplaceINSt6thread5_ImplISt12_Bind_simpleIFSt7_Mem_fnIM6ClientFvvEEPS4_EEEESaISB_ELN9__gnu_cxx12_Lock_policyE2EE:
	.word	_ZTVN10__cxxabiv120__si_class_type_infoE+8
	.word	_ZTSSt23_Sp_counted_ptr_inplaceINSt6thread5_ImplISt12_Bind_simpleIFSt7_Mem_fnIM6ClientFvvEEPS4_EEEESaISB_ELN9__gnu_cxx12_Lock_policyE2EE
	.word	_ZTISt16_Sp_counted_baseILN9__gnu_cxx12_Lock_policyE2EE
	.weak	_ZTSSt23_Sp_counted_ptr_inplaceINSt6thread5_ImplISt12_Bind_simpleIFSt7_Mem_fnIM6ClientFvvEEPS4_EEEESaISB_ELN9__gnu_cxx12_Lock_policyE2EE
	.section	.rodata._ZTSSt23_Sp_counted_ptr_inplaceINSt6thread5_ImplISt12_Bind_simpleIFSt7_Mem_fnIM6ClientFvvEEPS4_EEEESaISB_ELN9__gnu_cxx12_Lock_policyE2EE,"aG",%progbits,_ZTSSt23_Sp_counted_ptr_inplaceINSt6thread5_ImplISt12_Bind_simpleIFSt7_Mem_fnIM6ClientFvvEEPS4_EEEESaISB_ELN9__gnu_cxx12_Lock_policyE2EE,comdat
	.align	2
	.type	_ZTSSt23_Sp_counted_ptr_inplaceINSt6thread5_ImplISt12_Bind_simpleIFSt7_Mem_fnIM6ClientFvvEEPS4_EEEESaISB_ELN9__gnu_cxx12_Lock_policyE2EE, %object
	.size	_ZTSSt23_Sp_counted_ptr_inplaceINSt6thread5_ImplISt12_Bind_simpleIFSt7_Mem_fnIM6ClientFvvEEPS4_EEEESaISB_ELN9__gnu_cxx12_Lock_policyE2EE, 133
_ZTSSt23_Sp_counted_ptr_inplaceINSt6thread5_ImplISt12_Bind_simpleIFSt7_Mem_fnIM6ClientFvvEEPS4_EEEESaISB_ELN9__gnu_cxx12_Lock_policyE2EE:
	.ascii	"St23_Sp_counted_ptr_inplaceINSt6thread5_ImplISt12_B"
	.ascii	"ind_simpleIFSt7_Mem_fnIM6ClientFvvEEPS4_EEEESaISB_E"
	.ascii	"LN9__gnu_cxx12_Lock_policyE2EE\000"
	.weak	_ZTVNSt6thread10_Impl_baseE
	.section	.rodata._ZTVNSt6thread10_Impl_baseE,"aG",%progbits,_ZTVNSt6thread10_Impl_baseE,comdat
	.align	3
	.type	_ZTVNSt6thread10_Impl_baseE, %object
	.size	_ZTVNSt6thread10_Impl_baseE, 20
_ZTVNSt6thread10_Impl_baseE:
	.word	0
	.word	_ZTINSt6thread10_Impl_baseE
	.word	0
	.word	0
	.word	__cxa_pure_virtual
	.weak	_ZTVNSt6thread5_ImplISt12_Bind_simpleIFSt7_Mem_fnIM6ClientFvvEEPS3_EEEE
	.section	.rodata._ZTVNSt6thread5_ImplISt12_Bind_simpleIFSt7_Mem_fnIM6ClientFvvEEPS3_EEEE,"aG",%progbits,_ZTVNSt6thread5_ImplISt12_Bind_simpleIFSt7_Mem_fnIM6ClientFvvEEPS3_EEEE,comdat
	.align	3
	.type	_ZTVNSt6thread5_ImplISt12_Bind_simpleIFSt7_Mem_fnIM6ClientFvvEEPS3_EEEE, %object
	.size	_ZTVNSt6thread5_ImplISt12_Bind_simpleIFSt7_Mem_fnIM6ClientFvvEEPS3_EEEE, 20
_ZTVNSt6thread5_ImplISt12_Bind_simpleIFSt7_Mem_fnIM6ClientFvvEEPS3_EEEE:
	.word	0
	.word	_ZTINSt6thread5_ImplISt12_Bind_simpleIFSt7_Mem_fnIM6ClientFvvEEPS3_EEEE
	.word	_ZNSt6thread5_ImplISt12_Bind_simpleIFSt7_Mem_fnIM6ClientFvvEEPS3_EEED1Ev
	.word	_ZNSt6thread5_ImplISt12_Bind_simpleIFSt7_Mem_fnIM6ClientFvvEEPS3_EEED0Ev
	.word	_ZNSt6thread5_ImplISt12_Bind_simpleIFSt7_Mem_fnIM6ClientFvvEEPS3_EEE6_M_runEv
	.weak	_ZTVSt23_Sp_counted_ptr_inplaceINSt6thread5_ImplISt12_Bind_simpleIFSt7_Mem_fnIM6ClientFvvEEPS4_EEEESaISB_ELN9__gnu_cxx12_Lock_policyE2EE
	.section	.rodata._ZTVSt23_Sp_counted_ptr_inplaceINSt6thread5_ImplISt12_Bind_simpleIFSt7_Mem_fnIM6ClientFvvEEPS4_EEEESaISB_ELN9__gnu_cxx12_Lock_policyE2EE,"aG",%progbits,_ZTVSt23_Sp_counted_ptr_inplaceINSt6thread5_ImplISt12_Bind_simpleIFSt7_Mem_fnIM6ClientFvvEEPS4_EEEESaISB_ELN9__gnu_cxx12_Lock_policyE2EE,comdat
	.align	3
	.type	_ZTVSt23_Sp_counted_ptr_inplaceINSt6thread5_ImplISt12_Bind_simpleIFSt7_Mem_fnIM6ClientFvvEEPS4_EEEESaISB_ELN9__gnu_cxx12_Lock_policyE2EE, %object
	.size	_ZTVSt23_Sp_counted_ptr_inplaceINSt6thread5_ImplISt12_Bind_simpleIFSt7_Mem_fnIM6ClientFvvEEPS4_EEEESaISB_ELN9__gnu_cxx12_Lock_policyE2EE, 28
_ZTVSt23_Sp_counted_ptr_inplaceINSt6thread5_ImplISt12_Bind_simpleIFSt7_Mem_fnIM6ClientFvvEEPS4_EEEESaISB_ELN9__gnu_cxx12_Lock_policyE2EE:
	.word	0
	.word	_ZTISt23_Sp_counted_ptr_inplaceINSt6thread5_ImplISt12_Bind_simpleIFSt7_Mem_fnIM6ClientFvvEEPS4_EEEESaISB_ELN9__gnu_cxx12_Lock_policyE2EE
	.word	_ZNSt23_Sp_counted_ptr_inplaceINSt6thread5_ImplISt12_Bind_simpleIFSt7_Mem_fnIM6ClientFvvEEPS4_EEEESaISB_ELN9__gnu_cxx12_Lock_policyE2EED1Ev
	.word	_ZNSt23_Sp_counted_ptr_inplaceINSt6thread5_ImplISt12_Bind_simpleIFSt7_Mem_fnIM6ClientFvvEEPS4_EEEESaISB_ELN9__gnu_cxx12_Lock_policyE2EED0Ev
	.word	_ZNSt23_Sp_counted_ptr_inplaceINSt6thread5_ImplISt12_Bind_simpleIFSt7_Mem_fnIM6ClientFvvEEPS4_EEEESaISB_ELN9__gnu_cxx12_Lock_policyE2EE10_M_disposeEv
	.word	_ZNSt23_Sp_counted_ptr_inplaceINSt6thread5_ImplISt12_Bind_simpleIFSt7_Mem_fnIM6ClientFvvEEPS4_EEEESaISB_ELN9__gnu_cxx12_Lock_policyE2EE10_M_destroyEv
	.word	_ZNSt23_Sp_counted_ptr_inplaceINSt6thread5_ImplISt12_Bind_simpleIFSt7_Mem_fnIM6ClientFvvEEPS4_EEEESaISB_ELN9__gnu_cxx12_Lock_policyE2EE14_M_get_deleterERKSt9type_info
	.weakref	_ZL28__gthrw___pthread_key_createPjPFvPvE,__pthread_key_create
	.weakref	_ZL28__gthrw_pthread_mutex_unlockP15pthread_mutex_t,pthread_mutex_unlock
	.weakref	_ZL26__gthrw_pthread_mutex_lockP15pthread_mutex_t,pthread_mutex_lock
	.section	.rodata.str1.4,"aMS",%progbits,1
	.align	2
.LC0:
	.ascii	"The average amplitude of samples sent each second \000"
	.space	1
.LC1:
	.ascii	"Failed to set Thread scheduling : \000"
	.space	1
.LC2:
	.ascii	"ERROR opening socket\000"
	.space	3
.LC3:
	.ascii	"\012Connection Failed \000"
.LC4:
	.ascii	"ERROR connecting\000"
	.space	3
.LC5:
	.ascii	"error writing to socket\012\000"
	.space	3
.LC6:
	.ascii	"ERROR, no such host\012\000"
	.space	3
.LC7:
	.ascii	"trying to open camera\000"
	.space	2
.LC8:
	.ascii	"Failed to connect to the camera.\012 Exiting thread"
	.ascii	" now\000"
	.space	3
.LC9:
	.ascii	"entering loop\000"
	.space	2
.LC10:
	.ascii	"capturing\000"
	.space	2
.LC11:
	.ascii	"frame captured\000"
	.space	1
.LC12:
	.ascii	"bytes written to nw: \000"
	.bss
	.align	2
.LANCHOR0 = . + 0
	.type	_ZStL8__ioinit, %object
	.size	_ZStL8__ioinit, 1
_ZStL8__ioinit:
	.space	1
	.text
.Letext0:
	.file 18 "/usr/lib/gcc/arm-linux-gnueabihf/4.9/include/stddef.h"
	.file 19 "/usr/include/arm-linux-gnueabihf/bits/types.h"
	.file 20 "/usr/include/stdlib.h"
	.file 21 "/usr/include/arm-linux-gnueabihf/sys/types.h"
	.file 22 "/usr/include/time.h"
	.file 23 "/usr/include/arm-linux-gnueabihf/bits/pthreadtypes.h"
	.file 24 "/usr/include/unistd.h"
	.file 25 "/usr/include/c++/4.9/type_traits"
	.file 26 "/usr/include/c++/4.9/cstdint"
	.file 27 "/usr/include/c++/4.9/ctime"
	.file 28 "/usr/include/c++/4.9/ratio"
	.file 29 "/usr/include/c++/4.9/chrono"
	.file 30 "/usr/include/c++/4.9/bits/exception_ptr.h"
	.file 31 "/usr/include/arm-linux-gnueabihf/c++/4.9/bits/c++config.h"
	.file 32 "/usr/include/c++/4.9/typeinfo"
	.file 33 "/usr/include/c++/4.9/new"
	.file 34 "/usr/include/c++/4.9/bits/stl_pair.h"
	.file 35 "/usr/include/c++/4.9/bits/cpp_type_traits.h"
	.file 36 "/usr/include/c++/4.9/cwchar"
	.file 37 "/usr/include/c++/4.9/bits/allocator.h"
	.file 38 "/usr/include/c++/4.9/clocale"
	.file 39 "/usr/include/c++/4.9/cstdlib"
	.file 40 "/usr/include/c++/4.9/cstdio"
	.file 41 "/usr/include/c++/4.9/bits/basic_string.h"
	.file 42 "/usr/include/c++/4.9/bits/basic_string.tcc"
	.file 43 "/usr/include/c++/4.9/initializer_list"
	.file 44 "/usr/include/c++/4.9/bits/stringfwd.h"
	.file 45 "/usr/include/c++/4.9/bits/uses_allocator.h"
	.file 46 "/usr/include/c++/4.9/bits/shared_ptr.h"
	.file 47 "/usr/include/c++/4.9/cwctype"
	.file 48 "/usr/include/c++/4.9/bits/ostream.tcc"
	.file 49 "/usr/include/c++/4.9/cmath"
	.file 50 "/usr/include/c++/4.9/debug/debug.h"
	.file 51 "/usr/include/c++/4.9/bits/random.h"
	.file 52 "/usr/include/c++/4.9/cstddef"
	.file 53 "/usr/include/c++/4.9/iosfwd"
	.file 54 "/usr/include/c++/4.9/bits/stl_iterator_base_types.h"
	.file 55 "/usr/include/c++/4.9/bits/stl_function.h"
	.file 56 "/usr/include/c++/4.9/bits/ptr_traits.h"
	.file 57 "/usr/include/c++/4.9/bits/alloc_traits.h"
	.file 58 "/usr/include/c++/4.9/utility"
	.file 59 "/usr/include/c++/4.9/bits/basic_ios.tcc"
	.file 60 "/usr/include/c++/4.9/bits/move.h"
	.file 61 "/usr/include/c++/4.9/bits/ostream_insert.h"
	.file 62 "/usr/include/c++/4.9/bits/postypes.h"
	.file 63 "/usr/include/c++/4.9/bits/functexcept.h"
	.file 64 "/usr/include/c++/4.9/exception"
	.file 65 "/usr/include/stdint.h"
	.file 66 "/usr/include/c++/4.9/bits/predefined_ops.h"
	.file 67 "/usr/include/c++/4.9/ext/numeric_traits.h"
	.file 68 "/usr/include/c++/4.9/bits/stl_iterator.h"
	.file 69 "/usr/include/c++/4.9/ext/concurrence.h"
	.file 70 "/usr/include/stdio.h"
	.file 71 "/usr/include/libio.h"
	.file 72 "/usr/lib/gcc/arm-linux-gnueabihf/4.9/include/stdarg.h"
	.file 73 "<built-in>"
	.file 74 "/usr/include/wchar.h"
	.file 75 "/usr/include/locale.h"
	.file 76 "/usr/include/arm-linux-gnueabihf/bits/sched.h"
	.file 77 "/usr/include/arm-linux-gnueabihf/c++/4.9/bits/atomic_word.h"
	.file 78 "/usr/include/arm-linux-gnueabihf/bits/stdlib-float.h"
	.file 79 "/usr/include/arm-linux-gnueabihf/bits/stdlib-bsearch.h"
	.file 80 "/usr/include/_G_config.h"
	.file 81 "/usr/include/arm-linux-gnueabihf/bits/stdio.h"
	.file 82 "../Client.hpp"
	.file 83 "/usr/include/alsa/pcm.h"
	.file 84 "/usr/include/arm-linux-gnueabihf/bits/socket_type.h"
	.file 85 "/usr/include/arm-linux-gnueabihf/bits/sockaddr.h"
	.file 86 "/usr/include/arm-linux-gnueabihf/bits/socket.h"
	.file 87 "/usr/include/netinet/in.h"
	.file 88 "/usr/include/netdb.h"
	.file 89 "/usr/include/wctype.h"
	.file 90 "/usr/include/arm-linux-gnueabihf/bits/mathdef.h"
	.file 91 "/usr/include/opencv2/core/types_c.h"
	.file 92 "/usr/include/opencv2/core/core.hpp"
	.file 93 "/usr/include/opencv2/core/operations.hpp"
	.file 94 "/usr/include/opencv2/flann/miniflann.hpp"
	.file 95 "/usr/include/opencv2/objdetect/objdetect.hpp"
	.file 96 "/usr/include/opencv2/contrib/openfabmap.hpp"
	.file 97 "/usr/include/opencv2/highgui/highgui.hpp"
	.file 98 "/usr/include/opencv2/flann/defines.h"
	.file 99 "/usr/include/opencv2/highgui/highgui_c.h"
	.file 100 "/usr/include/pthread.h"
	.file 101 "../AudioInterface.h"
	.file 102 "/usr/include/arm-linux-gnueabihf/bits/mathcalls.h"
	.file 103 "/usr/include/arm-linux-gnueabihf/bits/errno.h"
	.file 104 "/usr/include/string.h"
	.file 105 "/usr/include/arm-linux-gnueabihf/sys/socket.h"